       1                                	.title	CPU
       2                                	.enabl	LC, AMA
       3                                	.list	MEB
       4                                	.asect
       5 001000                         	.=1000
       6                                
       7 000001                         CmdClearScreen	  =  1.
       8 000002                         CmdUpdPalette	  =  2.
       9 000003                         CmdFixWait	  =  3.
      10 000004                         CmdRtiToCpu	  =  4.
      11 000005                         CmdSetVLines      =  5.
      12 000006                         CmdDrawTile       =  6.
      13 000007                         CmdBlackWhite     =  7.
      14 000010                         CmdPrintCaveStr   =  8.
      15 000011                         CmdPrintDiamonds  =  9.
      16 000012                         CmdPlaySound      = 10.
      17                                
      18 100000                         VADDR  = 100000
      19 000050                         SCRWID = 40.
      20 000440                         SCRHEI = 288.
      21                                
      22 102400                         VFieldAddr = 102400
      23                                
      24 000000                         COBJ_SPACE 			= ^x00
      25 000001                         COBJ_DIRT			= ^x01
      26 000002                         COBJ_BRICK			= ^x02
      27 000003                         COBJ_MAGIC			= ^x03
      28 000004                         COBJ_HIDDEN_OUTBOX		= ^x04
      29 000005                         COBJ_OUTBOX			= ^x05
      30 000006                         COBJ_FRAGILE_STEEL		= ^x06
      31 000007                         COBJ_STEEL			= ^x07
      32 000010                         COBJ_FIREFLY_LEFT		= ^x08
      33 000011                         COBJ_FIREFLY_UP			= ^x09
      34 000012                         COBJ_FIREFLY_RIGHT		= ^x0A
      35 000013                         COBJ_FIREFLY_DOWN		= ^x0B
      36 000014                         COBJ_FIREFLY_LEFT_SCAN		= ^x0C
      37 000015                         COBJ_FIREFLY_UP_SCAN		= ^x0D
      38 000016                         COBJ_FIREFLY_RIGHT_SCAN		= ^x0E
      39 000017                         COBJ_FIREFLY_DOWN_SCAN		= ^x0F
      40 000020                         COBJ_BOULDER			= ^x10
      41 000021                         COBJ_BOULDER_SCAN		= ^x11
      42 000022                         COBJ_BOULDER_FALL		= ^x12
      43 000023                         COBJ_BOULDER_FALL_SCAN		= ^x13
      44 000024                         COBJ_DIAMOND			= ^x14
      45 000025                         COBJ_DIAMOND_SCAN		= ^x15
      46 000026                         COBJ_DIAMOND_FALL		= ^x16
      47 000027                         COBJ_DIAMOND_FALL_SCAN		= ^x17
      48 000033                         COBJ_EXP_SPACE_0		= ^x1B
      49 000034                         COBJ_EXP_SPACE_1		= ^x1C
      50 000035                         COBJ_EXP_SPACE_2		= ^x1D
      51 000036                         COBJ_EXP_SPACE_3		= ^x1E
      52 000037                         COBJ_EXP_SPACE_4		= ^x1F
      53 000040                         COBJ_EXP_DIAMOND_0		= ^x20
      54 000041                         COBJ_EXP_DIAMOND_1		= ^x21
      55 000042                         COBJ_EXP_DIAMOND_2		= ^x22
      56 000043                         COBJ_EXP_DIAMOND_3		= ^x23
      57 000044                         COBJ_EXP_DIAMOND_4		= ^x24
      58 000045                         COBJ_INBOX			= ^x25
      59 000046                         COBJ_PREROCKFORD_1		= ^x26
      60 000047                         COBJ_PREROCKFORD_2		= ^x27
      61 000050                         COBJ_PREROCKFORD_3		= ^x28
      62 000060                         COBJ_BUTTERFLY_DOWN		= ^x30
      63 000061                         COBJ_BUTTERFLY_LEFT		= ^x31
      64 000062                         COBJ_BUTTERFLY_UP		= ^x32
      65 000063                         COBJ_BUTTERFLY_RIGHT		= ^x33
      66 000064                         COBJ_BUTTERFLY_DOWN_SCAN 	= ^x34
      67 000065                         COBJ_BUTTERFLY_LEFT_SCAN 	= ^x35
      68 000066                         COBJ_BUTTERFLY_UP_SCAN		= ^x36
      69 000067                         COBJ_BUTTERFLY_RIGHT_SCAN 	= ^x37
      70                                
      71 000070                         COBJ_AMOEBA			= ^x38
      72 000071                         COBJ_AMOEBA_SCAN		= ^x39
      73 000072                         COBJ_ROCKFORD			= ^x3A
      74 000073                         COBJ_ROCKFORD_SCAN		= ^x3B
      75 000074                         COBJ_ROCKFORD_RIGHT      	= ^x3C
      76 000075                         COBJ_ROCKFORD_RIGHT_SCAN 	= ^x3D
      77 000076                         COBJ_ROCKFORD_LEFT       	= ^x3E
      78 000077                         COBJ_ROCKFORD_LEFT_SCAN  	= ^x3F
      79                                
      80 000020                         ANIMATED_BEGIN		= 16.
      81 000014                         COLORED_ENDS		= 12.
      82                                
      83 000001                         SND_BOOM 	= 1
      84 000002                         SND_TICK 	= 2
      85 000003                         SND_BOULDER	= 3
      86 000004                         SND_DIAMOND 	= 4
      87 000005                         SND_EMERGE 	= 5
      88 000006                         SND_DIRT	= 6
      89                                
      90 157670                         Key8		= 157670
      91 157672                         Key7		= 157672
      92 157674                         Key6		= 157674
      93 157676                         Key5		= 157676
      94 157700                         Key4		= 157700
      95 157702                         Key3		= 157702
      96 157704                         Key2		= 157704
      97 157706                         Key1		= 157706
      98 157710                         KeyK5		= 157710
      99 157712                         KeyK4		= 157712
     100 157714                         KeyK3		= 157714
     101 157716                         KeyK2		= 157716
     102 157720                         KeyK1		= 157720
     103 157722                         KeyStop		= 157722
     104 157724                         KeyUst		= 157724
     105 157726                         KeyShift	= 157726
     106 157730                         KeyEnter	= 157730
     107 157732                         KeySpace	= 157732
     108 157734                         KeyRight	= 157734
     109 157736                         KeyLeft		= 157736
     110 157740                         KeyDown		= 157740
     111 157742                         KeyUp		= 157742
     112 157744                         KeyCombo	= 157744
     113 157746                         KeyAny		= 157746
     114 157750                         KeyCurrent	= 157750
     115                                
     116 157752                         PpuRtiCount2	= 157752
     117 157754                         PpuWaitCount	= 157754
     118 157756                         VSyncCount1	= 157756
     119 157760                         VSyncCount2	= 157760
     120                                
     121 157762                         PpuR0		= 157762
     122 157764                         PpuR1		= 157764
     123 157766                         PpuR2		= 157766
     124 157770                         PpuR3		= 157770
     125 157772                         PpuR4		= 157772
     126 157774                         PpuR5		= 157774
     127 157776                         PpuCommand	= 157776
     128                                
     129 001000 106427  000200          Start:	mtps	#200
     130 001004 012706  001000          	mov	#1000, SP
     131                                
     132 001010 004737  002276          	call	StartPPU
     133                                
     134 001014 012700  020060          	mov	#PPUStart, R0
     135 001020 012703  057750          	mov	#160000-PPUStart/2, R3
     136 001024 005020                  	clr	(R0)+
     137 001026 077302                  	sob	R3, .-2
     138                                
     139 001030 005000                  	clr	R0
     140 001032 012720  000207          	mov	#207, (R0)+
     141 001036 005020                  	clr	(R0)+
     142 001040 012703  000117          	mov	#117, R3
     143 001044 012720  011416          10$:	mov	#RtiAdr, (R0)+
     144 001050 012720  000200          	mov	#200, (R0)+
     145 001054 077305                  	sob	R3, 10$
     146 001056 012703  000140          	mov	#1000-500/2, R3		; addrs 000500 .. 001000
     147 001062 005020                  	clr	(R0)+
     148 001064 077302                  	sob	R3, .-2
     149                                
     150 001066 004737  012076          	call	ClearScreen12
     151                                
     152 001072 012737  177777  157776  	mov	#177777, PpuCommand
     153 001100 005737  157776          	tst	PpuCommand
     154 001104 001375                  	bne	.-4
     155                                
     156 001106 012737  011424  000100  	mov	#VSync, @#100
     157                                
     158 001114 106427  000000          	mtps	#0
     159 001120 005037  012122          	clr	CurrentMode
     160                                
     161                                MainCycle:
     162 001124 004737  011436          	call	VSyncWait
     163 001130 004737  011632          	call	CheckStop
     164 001134 004737  011742          	call	CheckColors
     165 001140 005737  157724          	tst	KeyUst
     166 001144 001404                  	beq	10$
     167 001146 005037  157724          	clr	KeyUst
     168 001152 005137  012134          	com	Pause
     169 001156 005737  012134          10$:	tst	Pause
     170 001162 001360                  	bne	MainCycle
     171 001164 013700  012122          	mov	CurrentMode, R0
     172 001170 006300                  	asl	R0
     173 001172 004770  001206          	call	@MainCycleTable(R0)
     174 001176 004737  011656          	call	DebugInfo
     175 001202 000137  001124          	jmp	MainCycle
     176                                
     177                                MainCycleTable:
     178 001206 001222                  	.word	MainReset
     179 001210 001260                  	.word	MainMenu
     180 001212 001266                  	.word	MainPrepare
     181 001214 001274                  	.word	MainPrelevel
     182 001216 001456                  	.word	MainLevel
     183 001220 001752                  	.word	MainLevelEnd
     184                                
     185                                MainReset:
     186 001222 004737  011574          	call	WaitPpu
     187 001226 012737  000001  157776  	mov	#CmdClearScreen, PpuCommand
     188 001234 004737  012076          	call	ClearScreen12
     189 001240 005037  012136          	clr	Level
     190 001244 012737  000012  012136  	mov	#10., Level
     191 001252 005237  012122          	inc	CurrentMode
     192 001256 000207                  	return
     193                                
     194                                MainMenu:
     195 001260 005237  012122          	inc	CurrentMode
     196 001264 000207                  	return
     197                                
     198                                MainPrepare:
     199 001266 005237  012122          	inc	CurrentMode
     200 001272 000207                  	return
     201                                
     202                                MainPrelevel:
     203 001274 005037  012150          	clr	Diamonds
     204 001300 005037  012144          	clr	LevelCleared
     205 001304 005037  012154          	clr	ExitOpened
     206 001310 012737  000001  012216  	mov	#1, AmoebaGrowing
     207 001316 005037  012212          	clr	AmoebaCurCount
     208 001322 005037  012172          	clr	InboxCount
     209 001326 005037  012174          	clr	EmergingCount
     210 001332 004737  003312          	call	FieldInit
     211 001336 004737  004366          	call	FieldSetChanged
     212 001342 004737  005326          	call	UpdateRockfordXYInbox
     213 001346 013737  012200  012162  	mov	RockfordX, NewFieldX
     214 001354 013737  012202  012164  	mov	RockfordY, NewFieldY
     215 001362 162737  000012  012162  	sub	#10., NewFieldX
     216 001370 162737  000010  012164  	sub	#8., NewFieldY
     217 001376 004737  005106          	call	CorrectNewFieldXY
     218 001402 004737  011574          	call	WaitPpu
     219 001406 013737  012136  157762  	mov	Level, PpuR0
     220 001414 013737  012146  157764  	mov	DiamondsNeeded, PpuR1
     221 001422 012737  000010  157776  	mov	#CmdPrintCaveStr, PpuCommand
     222 001430 004737  011574          	call	WaitPpu
     223 001434 013737  012150  157762  	mov	Diamonds, PpuR0
     224 001442 012737  000011  157776  	mov	#CmdPrintDiamonds, PpuCommand
     225 001450 005237  012122          	inc	CurrentMode
     226 001454 000207                  	return
     227                                
     228                                MainLevel:
     229 001456 005037  012152          	clr	DiamondsUpdate
     230 001462 005037  012220          	clr	CurrentSound
     231 001466 004737  006212          	call	ProcessField
     232 001472 004737  011574          	call	WaitPpu
     233 001476 013737  012220  157762  	mov	CurrentSound, PpuR0
     234 001504 012737  000012  157776  	mov	#CmdPlaySound, PpuCommand
     235 001512 004737  005000          	call	UpdateFieldXY
     236 001516 004737  005224          	call	ScrollWindow
     237 001522 004737  004460          	call	DrawChanged
     238 001526 005737  012152          	tst	DiamondsUpdate
     239 001532 001410                  	beq	2$
     240 001534 004737  011574          	call	WaitPpu
     241 001540 013737  012150  157762  	mov	Diamonds, PpuR0
     242 001546 012737  000011  157776  	mov	#CmdPrintDiamonds, PpuCommand
     243                                2$:
     244 001554 005237  012176          	inc	NoRockford
     245 001560 023727  012176  000050  	cmp	NoRockford, #40.
     246 001566 003403                  	ble	10$
     247 001570 005337  012122          	dec	CurrentMode
     248 001574 000465                  	br	99$
     249                                10$:
     250 001576 005737  012154          	tst	ExitOpened
     251 001602 001025                  	bne	20$
     252 001604 023737  012150  012146  	cmp	Diamonds, DiamondsNeeded
     253 001612 103421                  	blo	20$
     254 001614 005237  012154          	inc	ExitOpened
     255 001620 004737  011574          	call	WaitPpu
     256 001624 012737  000005  157762  	mov	#SND_EMERGE, PpuR0
     257 001632 012737  000012  157776  	mov	#CmdPlaySound, PpuCommand
     258 001640 004737  011574          	call	WaitPpu
     259 001644 012737  000007  157776  	mov	#CmdBlackWhite, PpuCommand
     260 001652 004737  011574          	call	WaitPpu
     261 001656 005737  012144          20$:	tst	LevelCleared
     262 001662 001407                  	beq	30$
     263 001664 005037  012172          	clr	InboxCount
     264 001670 004737  004366          	call	FieldSetChanged
     265 001674 005237  012122          	inc	CurrentMode
     266 001700 000423                  	br	99$
     267                                30$:
     268 001702 005737  157710          	tst	KeyK5
     269 001706 001405                  	beq	40$
     270 001710 005037  157710          	clr	KeyK5
     271 001714 005337  012122          	dec	CurrentMode
     272 001720 000413                  	br	99$
     273                                40$:
     274 001722 005737  157732          	tst	KeySpace
     275 001726 001410                  	beq	99$
     276 001730 005037  157732          	clr	KeySpace
     277 001734 005037  012172          	clr	InboxCount
     278 001740 004737  004366          	call	FieldSetChanged
     279 001744 005237  012122          	inc	CurrentMode
     280                                99$:
     281 001750 000207                  	return
     282                                
     283                                MainLevelEnd:
     284 001752 005237  012172          	inc	InboxCount
     285 001756 023727  012172  000026  	cmp	InboxCount, #22.
     286 001764 003020                  	bgt	90$
     287 001766 004737  006326          	call	ProcessFieldEndlevel
     288 001772 004737  004460          	call	DrawChanged
     289 001776 004737  004406          	call	GetFieldVideo
     290 002002 010037  157762          	mov	R0, PpuR0
     291 002006 004737  011574          	call	WaitPpu
     292 002012 012737  000005  157776  	mov	#CmdSetVLines, PpuCommand
     293 002020 004737  011574          	call	WaitPpu
     294 002024 000207                  	return
     295                                90$:
     296 002026 005237  012136          	inc	Level
     297 002032 023727  012136  000023  	cmp	Level, #19.
     298 002040 003402                  	ble	92$
     299 002042 005037  012136          	clr	Level
     300                                92$:
     301 002046 012737  000003  012122  	mov	#03., CurrentMode
     302 002054 000207                  	return
     303                                
     304 002056 002062                  PPMSG:	.word	PPARR
     305 002060 177777                          .word	177777
     306                                
     307 002062    000                  PPARR:	.byte	0
     308 002063    000                  PPCMD:	.byte	0
     309 002064 000032                  	.word	32
     310 002066 000000                  PPAPP:	.word	0
     311 002070 000000                  PPACP:	.word	0
     312 002072 000000                  PPLEN:	.word	0
     313                                
     314 002074 012700  002056          PPSEN:	mov	#PPMSG, R0
     315 002100 012701  000005          	mov	#5, R1
     316 002104 000402                  	br	1$
     317 002106 112037  176676          2$:	movb	(R0)+, @#176676
     318 002112 105737  176674          1$:	tstb	@#176674
     319 002116 100375                  	bpl	1$
     320 002120 077106                  	sob	R1, 2$
     321 002122 000207                  	return
     322                                
     323 002124 112737  000001  002063  PPRUN:	movb	#1, PPCMD
     324 002132 010537  002072          	mov	R5, PPLEN
     325 002136 004737  002074          	call	PPSEN
     326 002142 112737  000020  002063  	movb	#20, PPCMD
     327 002150 010537  002072          	mov	R5, PPLEN
     328 002154 010437  002070          	mov 	R4, PPACP
     329 002160 004737  002074          	call	PPSEN
     330 002164 112737  000030  002063  	movb	#30, PPCMD
     331 002172 004737  002074          	call	PPSEN
     332 002176 000207                  	return
     333                                
     334                                PPULoaderStart:
     335 002200 106427  000200          	mtps	#200
     336 002204 005000                  	clr	R0
     337 002206 004770  007132          	call	@7132(R0)
     338 002212 010700                  	mov	PC, R0
     339 002214 062700  000024          	add	#10$-., R0
     340 002220 012701  077400          	mov	#77400, R1
     341 002224 012703  000200          	mov	#200, R3
     342 002230 012021                  	mov	(R0)+, (R1)+
     343 002232 077302                  	sob	R3, .-2
     344 002234 000137  077400          	jmp	@#77400
     345                                10$:
     346 002240 012704  177010          	mov	#177010, R4
     347 002244 012705  177014          	mov	#177014, R5
     348 002250 012714  100000          	mov	#100000, (R4)
     349 002254 005000                  	clr	R0
     350 002256 012703  037600          	mov	#37600, R3
     351 002262 011520                  	mov	(R5), (R0)+
     352 002264 005214                  	inc	(R4)
     353 002266 077303                  	sob	R3, .-4
     354 002270 012706  001000          	mov	#1000, SP
     355 002274 000116                  	jmp	(SP)
     356                                PPULoaderEnd:
     357                                
     358                                StartPPU:
     359 002276 004737  011562          	call	SetVreg
     360 002302 012714  100000          	mov	#100000, (R4)
     361 002306 012703  040000          	mov	#40000, R3
     362 002312 005015                  	clr	(R5)
     363 002314 005214                  	inc	(R4)
     364 002316 077303                  	sob	R3, .-4
     365 002320 012700  020060          	mov	#PPUStart, R0
     366 002324 012703  005065          	mov	#PPUEnd-PPUStart/2, R3
     367 002330 012714  100000          	mov	#100000, (R4)
     368 002334 012015                  	mov	(R0)+, (R5)
     369 002336 005214                  	inc	(R4)
     370 002340 077303                  	sob	R3, .-4
     371 002342 012704  002200          	mov	#PPULoaderStart, R4
     372 002346 012705  000037          	mov	#<PPULoaderEnd-PPULoaderStart/2>, R5
     373 002352 004737  002124          	call	PPRUN
     374 002356 005037  157776          	clr	PpuCommand
     375 002362 000207                  	return
     376                                
     377                                SprNumbers45:
     378 002364    007     005     005  	.BYTE	7,5,5,5,7,0,0,0, 2,2,2,2,2,0,0,0
         002367    005     007     000  
         002372    000     000     002  
         002375    002     002     002  
         002400    002     000     000  
         002403    000                  
     379 002404    007     004     007  	.BYTE	7,4,7,1,7,0,0,0, 7,4,6,4,7,0,0,0
         002407    001     007     000  
         002412    000     000     007  
         002415    004     006     004  
         002420    007     000     000  
         002423    000                  
     380 002424    005     005     007  	.BYTE	5,5,7,4,4,0,0,0, 7,1,7,4,7,0,0,0
         002427    004     004     000  
         002432    000     000     007  
         002435    001     007     004  
         002440    007     000     000  
         002443    000                  
     381 002444    007     001     007  	.BYTE	7,1,7,5,7,0,0,0, 7,4,4,4,4,0,0,0
         002447    005     007     000  
         002452    000     000     007  
         002455    004     004     004  
         002460    004     000     000  
         002463    000                  
     382 002464    007     005     007  	.BYTE	7,5,7,5,7,0,0,0, 7,5,7,4,7,0,0,0
         002467    005     007     000  
         002472    000     000     007  
         002475    005     007     004  
         002500    007     000     000  
         002503    000                  
     383 002504    160     120     120  	.BYTE	160,120,120,120,160,0,0,0, 040,040,040,040,040,0,0,0
         002507    120     160     000  
         002512    000     000     040  
         002515    040     040     040  
         002520    040     000     000  
         002523    000                  
     384 002524    160     100     160  	.BYTE	160,100,160,020,160,0,0,0, 160,100,140,100,160,0,0,0
         002527    020     160     000  
         002532    000     000     160  
         002535    100     140     100  
         002540    160     000     000  
         002543    000                  
     385 002544    120     120     160  	.BYTE	120,120,160,100,100,0,0,0, 160,020,160,100,160,0,0,0
         002547    100     100     000  
         002552    000     000     160  
         002555    020     160     100  
         002560    160     000     000  
         002563    000                  
     386 002564    160     020     160  	.BYTE	160,020,160,120,160,0,0,0, 160,100,100,100,100,0,0,0
         002567    120     160     000  
         002572    000     000     160  
         002575    100     100     100  
         002600    100     000     000  
         002603    000                  
     387 002604    160     120     160  	.BYTE	160,120,160,120,160,0,0,0, 160,120,160,100,160,0,0,0
         002607    120     160     000  
         002612    000     000     160  
         002615    120     160     100  
         002620    160     000     000  
         002623    000                  
     388                                
     389                                PrintBinaryWord:
     390 002624 012704  176640          	mov	#176640, R4
     391 002630 012705  176642          	mov	#176642, R5
     392 002634 010114                  	mov	R1, (R4)
     393 002636 012702  000050          	mov	#SCRWID, R2
     394 002642 012703  000010          	mov	#8., R3
     395                                20$:
     396 002646 012701  002364          	mov	#SprNumbers45, R1
     397 002652 006300                  	asl	R0
     398 002654 103002                  	bcc	30$
     399 002656 062701  000010          	add	#8., R1
     400 002662 112115                  30$:	movb	(R1)+, (R5)
     401 002664 060214                  	add	R2, (R4)
     402 002666 112115                  	movb	(R1)+, (R5)
     403 002670 060214                  	add	R2, (R4)
     404 002672 112115                  	movb	(R1)+, (R5)
     405 002674 060214                  	add	R2, (R4)
     406 002676 112115                  	movb	(R1)+, (R5)
     407 002700 060214                  	add	R2, (R4)
     408 002702 112115                  	movb	(R1)+, (R5)
     409 002704 162714  000240          	sub	#SCRWID*4, (R4)
     410 002710 012701  002504          	mov	#<SprNumbers45+80.>, R1
     411 002714 006300                  	asl	R0
     412 002716 103002                  	bcc	40$
     413 002720 062701  000010          	add	#8., R1
     414 002724 152115                  40$:	bisb	(R1)+, (R5)
     415 002726 060214                  	add	R2, (R4)
     416 002730 152115                  	bisb	(R1)+, (R5)
     417 002732 060214                  	add	R2, (R4)
     418 002734 152115                  	bisb	(R1)+, (R5)
     419 002736 060214                  	add	R2, (R4)
     420 002740 152115                  	bisb	(R1)+, (R5)
     421 002742 060214                  	add	R2, (R4)
     422 002744 152115                  	bisb	(R1)+, (R5)
     423 002746 162714  000237          	sub	#SCRWID*4-1, (R4)
     424 002752 077343                  	sob	R3, 20$
     425 002754 000207                  	return
     426                                
     427                                PrintOctalWord:
     428 002756 012704  176640          	mov	#176640, R4
     429 002762 012705  176642          	mov	#176642, R5
     430 002766 010114                  	mov	R1, (R4)
     431 002770 012702  000050          	mov	#SCRWID, R2
     432 002774 012703  000003          	mov	#3., R3
     433 003000 005001                  	clr	R1
     434 003002 000405                  	br	22$
     435                                20$:
     436 003004 005001                  	clr	R1
     437 003006 006300                  	asl	R0
     438 003010 006101                  	rol	R1
     439 003012 006300                  	asl	R0
     440 003014 006101                  	rol	R1
     441 003016 006300                  22$:	asl	R0
     442 003020 006101                  	rol	R1
     443 003022 006301                  	asl	R1
     444 003024 006301                  	asl	R1
     445 003026 006301                  	asl	R1
     446 003030 062701  002364          	add	#SprNumbers45, R1
     447 003034 112115                  	movb	(R1)+, (R5)
     448 003036 060214                  	add	R2, (R4)
     449 003040 112115                  	movb	(R1)+, (R5)
     450 003042 060214                  	add	R2, (R4)
     451 003044 112115                  	movb	(R1)+, (R5)
     452 003046 060214                  	add	R2, (R4)
     453 003050 112115                  	movb	(R1)+, (R5)
     454 003052 060214                  	add	R2, (R4)
     455 003054 112115                  	movb	(R1)+, (R5)
     456 003056 162714  000240          	sub	#SCRWID*4, (R4)
     457 003062 005001                  	clr	R1
     458 003064 006300                  	asl	R0
     459 003066 006101                  	rol	R1
     460 003070 006300                  	asl	R0
     461 003072 006101                  	rol	R1
     462 003074 006300                  	asl	R0
     463 003076 006101                  	rol	R1
     464 003100 006301                  	asl	R1
     465 003102 006301                  	asl	R1
     466 003104 006301                  	asl	R1
     467 003106 062701  002504          	add	#<SprNumbers45+80.>, R1
     468 003112 152115                  	bisb	(R1)+, (R5)
     469 003114 060214                  	add	R2, (R4)
     470 003116 152115                  	bisb	(R1)+, (R5)
     471 003120 060214                  	add	R2, (R4)
     472 003122 152115                  	bisb	(R1)+, (R5)
     473 003124 060214                  	add	R2, (R4)
     474 003126 152115                  	bisb	(R1)+, (R5)
     475 003130 060214                  	add	R2, (R4)
     476 003132 152115                  	bisb	(R1)+, (R5)
     477 003134 162714  000237          	sub	#SCRWID*4-1, (R4)
     478 003140 077357                  	sob	R3, 20$
     479 003142 000207                  	return
     480                                
     481 003144 000000                  RandSeed1:	.word	0
     482 003146 000000                  RandSeed2:	.word	0
     483 003150 000000                  TempRand1:	.word	0
     484 003152 000000                  TempRand2:	.word	0
     485                                
     486                                NextRandom:
     487 003154 013700  003144          	mov	RandSeed1, R0
     488 003160 106000                  	rorb	R0
     489 003162 106000                          rorb	R0
     490 003164 042700  177577                  bic	#^B1111111101111111, R0
     491 003170 110037  003150                  movb	R0, TempRand1
     492 003174 013700  003146          	mov	RandSeed2, R0
     493 003200 106000                  	rorb	R0
     494 003202 042700  177600          	bic	#^B1111111110000000, R0
     495 003206 110037  003152          	movb	R0, TempRand2
     496 003212 113700  003146          	movb	RandSeed2, R0
     497 003216 106000                  	rorb	R0
     498 003220 106000                  	rorb	R0
     499 003222 042700  177577          	bic	#^B1111111101111111, R0
     500 003226 063700  003146          	add	RandSeed2, R0
     501 003232 022700  000377          	cmp	#377, R0
     502 003236 042700  177400          	bic	#^B1111111100000000, R0
     503 003242 005500                  	adc	R0
     504 003244 062700  000023          	add	#23, R0
     505 003250 022700  000377          	cmp	#377, R0
     506 003254 110037  003146          	movb	R0, RandSeed2
     507 003260 013700  003144          	mov	RandSeed1, R0
     508 003264 005500                  	adc	R0
     509 003266 063700  003150          	add	TempRand1, R0
     510 003272 022700  000377          	cmp	#377, R0
     511 003276 005500                  	adc	R0
     512 003300 063700  003152          	add	TempRand2, R0
     513 003304 110037  003144          	movb	R0, RandSeed1
     514 003310 000207                  	return
     515                                
     516                                FieldInit:
     517 003312 012700  020060          	mov	#Field, R0
     518 003316 012703  001560          	mov	#FieldEnd-Field/2, R3
     519 003322 012720  000007          	mov	#COBJ_STEEL, (R0)+
     520 003326 077303                  	sob	R3, .-4
     521 003330 013700  012136          	mov	Level, R0
     522 003334 006300                  	asl	R0
     523 003336 016037  012262  012140  	mov	LevelsTable(R0), LevelAddr
     524 003344 117737  012140' 012142  	movb	@LevelAddr, LevelColor
     525 003352 005237  012140          	inc	LevelAddr
     526 003356 117737  012140' 012146  	movb	@LevelAddr, DiamondsNeeded
     527 003364 005237  012140          	inc	LevelAddr
     528 003370 005037  003144          	clr	RandSeed1
     529 003374 117737  012140' 003146  	movb	@LevelAddr, RandSeed2
     530 003402 005237  012140          	inc	LevelAddr
     531 003406 012737  020200  012222  	mov	#Field+80., varAddr
     532 003414 012737  000001  012224  20$:	mov	#COBJ_DIRT, VarObject
     533 003422 004737  003154          	call	NextRandom
     534 003426 013701  003144          	mov	RandSeed1, R1
     535 003432 013705  012140          	mov	LevelAddr, R5
     536 003436 010500                  	mov	R5, R0
     537 003440 062700  000004          	add	#4., R0
     538 003444 012703  000004          	mov	#4., R3
     539 003450 120120                  30$:	cmpb	R1, (R0)+
     540 003452 103002                  	bhis	40$
     541 003454 111537  012224          	movb	(R5), VarObject
     542 003460 005205                  40$:	inc	R5
     543 003462 077306                  	sob	R3, 30$
     544 003464 013777  012224  012222' 	mov	VarObject, @varAddr
     545 003472 062737  000002  012222  	add	#2, varAddr
     546 003500 023727  012222  023300  	cmp	varAddr, #FieldEnd-80.
     547 003506 103742                  	blo	20$
     548 003510 012700  020200          	mov	#Field+80., R0
     549 003514 012703  000024          	mov	#20., R3
     550 003520 012710  000007          50$:	mov	#COBJ_STEEL, (R0)
     551 003524 062700  000116          	add	#78., R0
     552 003530 012720  000007          	mov	#COBJ_STEEL, (R0)+
     553 003534 077307                  	sob	R3, 50$
     554 003536 062737  000010  012140  	add	#8., LevelAddr
     555                                FieldCommands:
     556 003544 004737  012060          	call	ClearTempVars
     557                                10$:
     558 003550 117737  012140' 012224  	movb	@LevelAddr, varObject
     559 003556 023727  012224  000377  	cmp	varObject, #377
     560 003564 001524                  	beq	99$
     561 003566 013737  012224  012226  	mov	varObject, varCmd
     562 003574 042737  177700  012224  	bic	#^B1111111111000000, varObject
     563 003602 042737  177477  012226  	bic	#^B1111111100111111, varCmd
     564 003610 005237  012140          	inc	LevelAddr
     565 003614 117737  012140' 012230  	movb	@LevelAddr, varX
     566 003622 005237  012140          	inc	LevelAddr
     567 003626 117737  012140' 012232  	movb	@LevelAddr, varY
     568 003634 005237  012140          	inc	LevelAddr
     569 003640 022737  000000  012226  	cmp	#^B00000000, varCmd
     570 003646 001003                  	bne	20$
     571 003650 004737  004066          	call	PutObject
     572 003654 000735                  	br	10$
     573                                20$:
     574 003656 022737  000100  012226  	cmp	#^B01000000, varCmd
     575 003664 001015                  	bne	30$
     576 003666 117737  012140' 012240  	movb	@LevelAddr, varLength
     577 003674 005237  012140          	inc	LevelAddr
     578 003700 117737  012140' 012242  	movb	@LevelAddr, varDir
     579 003706 005237  012140          	inc	LevelAddr
     580 003712 004737  004140          	call	PutLine
     581 003716 000714                  	br	10$
     582                                30$:
     583 003720 022737  000200  012226  	cmp	#^B10000000, varCmd
     584 003726 001022                  	bne	40$
     585 003730 117737  012140' 012234  	movb	@LevelAddr, varDx
     586 003736 005237  012140          	inc	LevelAddr
     587 003742 117737  012140' 012236  	movb	@LevelAddr, varDy
     588 003750 005237  012140          	inc	LevelAddr
     589 003754 117737  012140' 012244  	movb	@LevelAddr, varFill
     590 003762 005237  012140          	inc	LevelAddr
     591 003766 004737  004276          	call	PutFilledRect
     592 003772 000666                  	br	10$
     593                                40$:
     594 003774 022737  000300  012226  	cmp	#^B11000000, varCmd
     595 004002 001015                  	bne	99$
     596 004004 117737  012140' 012234  	movb	@LevelAddr, varDx
     597 004012 005237  012140          	inc	LevelAddr
     598 004016 117737  012140' 012236  	movb	@LevelAddr, varDy
     599 004024 005237  012140          	inc	LevelAddr
     600 004030 004737  004202          	call	PutRectangle
     601 004034 000645                  	br	10$
     602 004036 000207                  99$:	return
     603                                
     604                                PutCoordsR0:
     605 004040 013700  012230          	mov	varX, R0
     606 004044 006300                  	asl	R0
     607 004046 013701  012232          	mov	varY, R1
     608 004052 070127  000120          	mul	#80., R1
     609 004056 060100                  	add	R1, R0
     610 004060 062700  020060          	add	#Field, R0
     611 004064 000207                  	return
     612                                
     613                                PutObject:
     614 004066 004737  004040          	call	PutCoordsR0
     615 004072 013710  012224          	mov	varObject, (R0)
     616 004076 000207                  	return
     617                                
     618 004100 000000  000002  000002  tmpLineDirDX:	.word	0, 2, 2, 2, 0, -2, -2, -2
         004106 000002  000000  177776  
         004114 177776  177776          
     619 004120 177660  177660  000000  tmpLineDirDY:	.word	-80., -80., 0, 80., 80., 80., 0, -80.
         004126 000120  000120  000120  
         004134 000000  177660          
     620                                
     621                                PutLine:
     622 004140 004737  004040          	call	PutCoordsR0
     623 004144 013701  012242          	mov	varDir, R1
     624 004150 006301                  	asl	R1
     625 004152 016104  004100          	mov	tmpLineDirDX(R1), R4
     626 004156 016105  004120          	mov	tmpLineDirDY(R1), R5
     627 004162 013703  012240          	mov	varLength, R3
     628 004166 013710  012224          10$:	mov	varObject, (R0)
     629 004172 060400                  	add	R4, R0
     630 004174 060500                  	add	R5, R0
     631 004176 077305                  	sob	R3, 10$
     632 004200 000207                  	return
     633                                
     634                                PutRectangle:
     635 004202 012737  000002  012242  	mov	#2., varDir
     636 004210 013737  012234  012240  	mov	varDx, varLength
     637 004216 004737  004140          	call	PutLine
     638 004222 063737  012236  012232  	add	varDy, varY
     639 004230 005337  012232          	dec	varY
     640 004234 004737  004140          	call	PutLine
     641 004240 005037  012242          	clr	varDir
     642 004244 013737  012236  012240  	mov	varDy, varLength
     643 004252 004737  004140          	call	PutLine
     644 004256 063737  012234  012230  	add	varDx, varX
     645 004264 005337  012230          	dec	varX
     646 004270 004737  004140          	call	PutLine
     647 004274 000207                  	return
     648                                
     649                                PutFilledRect:
     650 004276 013704  012234          	mov	varDx, R4
     651 004302 162704  000002          	sub	#2, R4
     652 004306 006304                  	asl	R4
     653 004310 012705  000120          	mov	#80., R5
     654 004314 160405                  	sub	R4, R5
     655 004316 004737  004040          	call	PutCoordsR0
     656 004322 062700  000122          	add	#82., R0
     657 004326 013703  012236          	mov	varDy, R3
     658 004332 005303                  	dec	R3
     659 004334 005303                  	dec	R3
     660 004336 013702  012234          10$:	mov	varDx, R2
     661 004342 005302                  	dec	R2
     662 004344 005302                  	dec	R2
     663 004346 013720  012244          20$:	mov	varFill, (R0)+
     664 004352 077203                  	sob	R2, 20$
     665 004354 060500                  	add	R5, R0
     666 004356 077311                  	sob	R3, 10$
     667 004360 004737  004202          	call	PutRectangle
     668 004364 000207                  	return
     669                                
     670                                FieldSetChanged:
     671 004366 012700  020060          	mov	#Field, R0
     672 004372 012703  001560          	mov	#FieldEnd-Field/2, R3
     673 004376 052720  100000          	bis	#100000, (R0)+
     674 004402 077303                  	sob	R3, .-4
     675 004404 000207                  	return
     676                                
     677                                GetFieldVideo:
     678 004406 013700  012156          	mov	FieldX, R0
     679 004412 062700  102400          	add	#VFieldAddr, R0
     680 004416 013701  012160          	mov	FieldY, R1
     681 004422 070127  001200          	mul	#SCRWID*16., R1
     682 004426 060100                  	add	R1, R0
     683 004430 000207                  	return
     684                                
     685                                GetFieldAddr:
     686 004432 013700  012156          	mov	FieldX, R0
     687 004436 006300                  	asl	R0
     688 004440 013701  012160          	mov	FieldY, R1
     689 004444 070127  000120          	mul	#80., R1
     690 004450 060100                  	add	R1, R0
     691 004452 062700  020060          	add	#Field, R0
     692 004456 000207                  	return
     693                                
     694                                DrawChanged:
     695 004460 004737  011562          	call	SetVreg
     696 004464 004737  004406          	call	GetFieldVideo
     697 004470 010046                  	mov	R0, -(SP)
     698 004472 004737  004432          	call	GetFieldAddr
     699 004476 012702  000050          	mov	#SCRWID, R2
     700 004502 012737  000020  012254  	mov	#16., TempR3
     701 004510 011614                  10$:	mov	(SP), (R4)
     702 004512 012703  000024          	mov	#20., R3
     703 004516 011001                  20$:	mov	(R0), R1
     704 004520 032701  100000          	bit	#100000, R1
     705 004524 001503                  	beq	30$
     706 004526 042701  177700          	bic	#^B1111111111000000, R1
     707 004532 006301                  	asl	R1
     708 004534 016101  005372          	mov	ObjectBaseTiles(R1), R1
     709 004540 001414                  	beq	28$
     710 004542 020127  000014          	cmp	R1, #COLORED_ENDS
     711 004546 101002                  	bhi	26$
     712 004550 063701  012142          	add	LevelColor, R1
     713 004554 020127  000020          26$:	cmp	R1, #ANIMATED_BEGIN
     714 004560 103404                  	blo	28$
     715 004562 042701  000003          	bic	#^B11, R1
     716 004566 053701  012170          	bis	AniCounter, R1
     717                                28$:
     718 004572 004737  011574          	call	WaitPpu
     719 004576 011437  157762          	mov	(R4), PpuR0
     720 004602 010137  157764          	mov	R1, PpuR1
     721 004606 012737  000006  157776  	mov	#CmdDrawTile, PpuCommand
     722 004614 072127  000005          	ash	#5., R1
     723 004620 062701  014660          	add	#TilesCpuData, R1
     724                                	.rept	16.
     725                                	mov	(R1)+, (R5)
     726                                	add	R2, (R4)
     727                                	.endr
       1 004624 012115                  	mov	(R1)+, (R5)
       2 004626 060214                  	add	R2, (R4)
       1 004630 012115                  	mov	(R1)+, (R5)
       2 004632 060214                  	add	R2, (R4)
       1 004634 012115                  	mov	(R1)+, (R5)
       2 004636 060214                  	add	R2, (R4)
       1 004640 012115                  	mov	(R1)+, (R5)
       2 004642 060214                  	add	R2, (R4)
       1 004644 012115                  	mov	(R1)+, (R5)
       2 004646 060214                  	add	R2, (R4)
       1 004650 012115                  	mov	(R1)+, (R5)
       2 004652 060214                  	add	R2, (R4)
       1 004654 012115                  	mov	(R1)+, (R5)
       2 004656 060214                  	add	R2, (R4)
       1 004660 012115                  	mov	(R1)+, (R5)
       2 004662 060214                  	add	R2, (R4)
       1 004664 012115                  	mov	(R1)+, (R5)
       2 004666 060214                  	add	R2, (R4)
       1 004670 012115                  	mov	(R1)+, (R5)
       2 004672 060214                  	add	R2, (R4)
       1 004674 012115                  	mov	(R1)+, (R5)
       2 004676 060214                  	add	R2, (R4)
       1 004700 012115                  	mov	(R1)+, (R5)
       2 004702 060214                  	add	R2, (R4)
       1 004704 012115                  	mov	(R1)+, (R5)
       2 004706 060214                  	add	R2, (R4)
       1 004710 012115                  	mov	(R1)+, (R5)
       2 004712 060214                  	add	R2, (R4)
       1 004714 012115                  	mov	(R1)+, (R5)
       2 004716 060214                  	add	R2, (R4)
       1 004720 012115                  	mov	(R1)+, (R5)
       2 004722 060214                  	add	R2, (R4)
     728 004724 162714  001200          	sub	#SCRWID*16., (R4)
     729 004730 042710  100000          	bic	#100000, (R0)
     730                                30$:
     731 004734 005214                  	inc	(R4)
     732 004736 062700  000002          	add	#2, R0
     733 004742 005303                  	dec	R3
     734 004744 001402                  	beq	40$
     735 004746 000137  004516          	jmp	20$
     736                                40$:
     737 004752 062700  000050          	add	#40., R0
     738 004756 062716  001200          	add	#SCRWID*16., (SP)
     739 004762 005337  012254          	dec	TempR3
     740 004766 001402                  	beq	99$
     741 004770 000137  004510          	jmp	10$
     742 004774 005726                  99$:	tst	(SP)+
     743 004776 000207                  	return
     744                                
     745                                UpdateFieldXY:
     746 005000 013701  012200          	mov	RockfordX, R1
     747 005004 013702  012202          	mov	RockfordY, R2
     748 005010 010103                  	mov	R1, R3
     749 005012 163703  012156          	sub	FieldX, R3
     750 005016 020327  000004          	cmp	R3, #4.
     751 005022 002404                  	blt	10$
     752 005024 020327  000017          	cmp	R3, #15.
     753 005030 003001                  	bgt	10$
     754 005032 000404                  	br	20$
     755 005034 162701  000012          10$:	sub	#10., R1
     756 005040 010137  012162          	mov	R1, NewFieldX
     757                                20$:
     758 005044 010203                  	mov	R2, R3
     759 005046 163703  012160          	sub	FieldY, R3
     760 005052 020327  000003          	cmp	R3, #3.
     761 005056 002404                  	blt	30$
     762 005060 020327  000015          	cmp	R3, #13.
     763 005064 003001                  	bgt	30$
     764 005066 000404                  	br	50$
     765 005070 162702  000010          30$:	sub	#8., R2
     766 005074 010237  012164          	mov	R2, NewFieldY
     767 005100 004737  005106          50$:	call	CorrectNewFieldXY
     768 005104 000207                  	return
     769                                
     770                                CorrectNewFieldXY:
     771 005106 005737  012162          	tst	NewFieldX
     772 005112 002002                  	bge	10$
     773 005114 005037  012162          	clr	NewFieldX
     774 005120 023727  012162  000024  10$:	cmp	NewFieldX, #20.
     775 005126 003403                  	ble	20$
     776 005130 012737  000024  012162  	mov	#20., NewFieldX
     777 005136 005737  012164          20$:	tst	NewFieldY
     778 005142 002002                  	bge	30$
     779 005144 005037  012164          	clr	NewFieldY
     780 005150 023727  012164  000006  30$:	cmp	NewFieldY, #6.
     781 005156 003403                  	ble	40$
     782 005160 012737  000006  012164  	mov	#6., NewFieldY
     783 005166 000207                  40$:	return
     784                                
     785                                RedrawScreen:
     786 005170 004737  004460          	call	DrawChanged
     787 005174 004737  004406          	call	GetFieldVideo
     788 005200 010037  157762          	mov	R0, PpuR0
     789 005204 004737  011574          	call	WaitPpu
     790 005210 012737  000005  157776  	mov	#CmdSetVLines, PpuCommand
     791 005216 004737  011574          	call	WaitPpu
     792 005222 000207                  	return
     793                                
     794                                ScrollWindow:
     795 005224 005000                  	clr	R0
     796 005226 023737  012156  012162  	cmp	FieldX, NewFieldX
     797 005234 001410                  	beq	20$
     798 005236 002404                  	blt	10$
     799 005240 005337  012156          	dec	FieldX
     800 005244 005200                  	inc	R0
     801 005246 000403                  	br	20$
     802 005250 005237  012156          10$:	inc	FieldX
     803 005254 005200                  	inc	R0
     804 005256 023737  012160  012164  20$:	cmp	FieldY, NewFieldY
     805 005264 001410                  	beq	40$
     806 005266 002404                  	blt	30$
     807 005270 005337  012160          	dec	FieldY
     808 005274 005200                  	inc	R0
     809 005276 000403                  	br	40$
     810 005300 005237  012160          30$:	inc	FieldY
     811 005304 005200                  	inc	R0
     812 005306 005700                  40$:	tst	R0
     813 005310 001405                  	beq	99$
     814 005312 004737  011534          	call	VSyncWait2
     815 005316 004737  005170          	call	RedrawScreen
     816 005322 000740                  	br	ScrollWindow
     817 005324 000207                  99$:	return
     818                                
     819                                UpdateRockfordXYInbox:
     820 005326 005037  012200          	clr	RockfordX
     821 005332 005037  012202          	clr	RockfordY
     822 005336 012704  020060          	mov	#Field, R4
     823 005342 012703  001560          	mov	#FieldEnd-Field/2, R3
     824 005346 121427  000045          10$:	cmpb	(R4), #COBJ_INBOX
     825 005352 001404                  	beq	20$
     826 005354 005204                  	inc	R4
     827 005356 005204                  	inc	R4
     828 005360 077306                  	sob	R3, 10$
     829 005362 000207                  	return
     830 005364 004737  010626          20$:	call	UpdateRockfordXY
     831 005370 000207                  	return
     832                                
     833                                ObjectBaseTiles:
     834                                	.radix	10
     835 005372 000000  000004  000007  	.word	 0,  4,  7, 20,  1, 44,  1,  1, 24, 24, 24, 24, 24, 24, 24, 24
         005400 000024  000001  000054  
         005406 000001  000001  000030  
         005414 000030  000030  000030  
         005422 000030  000030  000030  
         005430 000030                  
     836 005432 000012  000012  000012  	.word	10, 10, 10, 10, 16, 16, 16, 16,  0,  0,  0, 13, 13, 14, 15, 13
         005440 000012  000020  000020  
         005446 000020  000020  000000  
         005454 000000  000000  000015  
         005462 000015  000016  000017  
         005470 000015                  
     837 005472 000015  000015  000016  	.word	13, 13, 14, 15, 18, 44, 13, 14, 15,  0,  0,  0,  0,  0,  0,  0
         005500 000017  000022  000054  
         005506 000015  000016  000017  
         005514 000000  000000  000000  
         005522 000000  000000  000000  
         005530 000000                  
     838 005532 000034  000034  000034  	.word	28, 28, 28, 28, 28, 28, 28, 28, 48, 48, 32, 32, 36, 36, 40, 40
         005540 000034  000034  000034  
         005546 000034  000034  000060  
         005554 000060  000040  000040  
         005562 000044  000044  000050  
         005570 000050                  
     839                                	.radix	8
     840                                
     841                                ObjFromScanned:
     842 005572 000000  000000  000000  	.word	^x00, ^x00, ^x00, ^x00,   ^x00, ^x00, ^x00, ^x00,   ^x00, ^x00, ^x00, ^x00,   ^x08, ^x09, ^x0a, ^x0b
         005600 000000  000000  000000  
         005606 000000  000000  000000  
         005614 000000  000000  000000  
         005622 000010  000011  000012  
         005630 000013                  
     843 005632 000000  000020  000000  	.word	^x00, ^x10, ^x00, ^x12,   ^x00, ^x14, ^x00, ^x16,   ^x00, ^x00, ^x00, ^x00,   ^x00, ^x00, ^x00, ^x00
         005640 000022  000000  000024  
         005646 000000  000026  000000  
         005654 000000  000000  000000  
         005662 000000  000000  000000  
         005670 000000                  
     844 005672 000000  000000  000000  	.word	^x00, ^x00, ^x00, ^x00,   ^x00, ^x00, ^x00, ^x00,   ^x00, ^x00, ^x00, ^x00,   ^x00, ^x00, ^x00, ^x00
         005700 000000  000000  000000  
         005706 000000  000000  000000  
         005714 000000  000000  000000  
         005722 000000  000000  000000  
         005730 000000                  
     845 005732 000000  000000  000000  	.word	^x00, ^x00, ^x00, ^x00,   ^x30, ^x31, ^x32, ^x33,   ^x00, ^x38, ^x00, ^x3A,   ^x00, ^x3C, ^x00, ^x3E
         005740 000000  000060  000061  
         005746 000062  000063  000000  
         005754 000070  000000  000072  
         005762 000000  000074  000000  
         005770 000076                  
     846                                
     847                                FromLeftClockwise:
     848 005772 177776  177660  000002  	.word	-2., -80., +2., +80.
         006000 000120                  
     849                                FromDownClockwise:
     850 006002 000120  177776  177660  	.word	+80., -2., -80., +2.
         006010 000002                  
     851                                
     852                                ProcessTable:
     853 006012 000000  000000  000000  	0, 			0, 			0, 			ProcessMagicWall
         006020 006604                  
     854 006022 006570  006514  000000  	ProcessHiddenOutbox, 	ProcessInAndOutBoxes,  	0,			0
         006030 000000                  
     855 006032 006620  006620  006620  	ProcessFirefly,   	ProcessFirefly,   	ProcessFirefly,   	ProcessFirefly
         006040 006620                  
     856 006042 000000  000000  000000  	0, 			0, 			0, 			0
         006050 000000                  
     857 006052 007250  000000  007272  	ProcessStationaryBoulder,   	0,   		ProcessFallingBoulder,  0
         006060 000000                  
     858 006062 007550  000000  007604  	ProcessStationaryDiamond,   	0,	   	ProcessFallingDiamond, 	0
         006070 000000                  
     859 006072 000000  000000  000000  	0,		   	0,		   	0,		   	ProcessExplosionSpace
         006100 010060                  
     860 006102 010060  010060  010060  	ProcessExplosionSpace, 	ProcessExplosionSpace, 	ProcessExplosionSpace, 	ProcessExplosionSpace
         006110 010060                  
     861 006112 010110  010110  010110     	ProcessExplosionDia,   	ProcessExplosionDia,   	ProcessExplosionDia,   	ProcessExplosionDia
         006120 010110                  
     862 006122 010110  006514  010140     	ProcessExplosionDia,   	ProcessInAndOutBoxes,  	ProcessRockfordAppear,	ProcessRockfordAppear
         006130 010140                  
     863 006132 010140  000000  000000  	ProcessRockfordAppear,	0,			0,			0
         006140 000000                  
     864 006142 000000  000000  000000  	0,		   	0,		   	0,		   	0
         006150 000000                  
     865 006152 007034  007034  007034  	ProcessButterfly,   	ProcessButterfly,   	ProcessButterfly,   	ProcessButterfly
         006160 007034                  
     866 006162 000000  000000  000000  	0, 			0, 			0, 			0
         006170 000000                  
     867 006172 010666  000000  010162  	ProcessAmoeba,   	0,   			ProcessRockford,   	0
         006200 000000                  
     868 006202 010162  000000  010162  	ProcessRockford,	0,			ProcessRockford, 	0
         006210 000000                  
     869                                
     870                                ProcessField:
     871 006212 013737  012212  012210  	mov	AmoebaCurCount, AmoebaCount
     872 006220 005037  012212          	clr	AmoebaCurCount
     873 006224 013737  012216  012214  	mov	AmoebaGrowing, AmoebaCanGrow
     874 006232 005037  012216          	clr	AmoebaGrowing
     875 006236 012705  020202          	mov	#Field+82., R5
     876 006242 011500                  10$:	mov	(R5), R0
     877 006244 042700  177700          	bic	#^B1111111111000000, R0
     878 006250 001405                  	beq	20$
     879 006252 006300                  	asl	R0
     880 006254 016000  006012          	mov	ProcessTable(R0), R0
     881 006260 001401                  	beq	20$
     882 006262 004710                  	call	(R0)
     883                                20$:
     884 006264 016500  177656          	mov	-82.(R5), R0
     885 006270 042700  177700          	bic	#^B1111111111000000, R0
     886 006274 001406                  	beq	30$
     887 006276 006300                  	asl	R0
     888 006300 016000  005572          	mov	ObjFromScanned(R0), R0
     889 006304 001402                  	beq	30$
     890 006306 110065  177656          	movb	R0, -82.(R5)
     891                                30$:
     892 006312 005205                  	inc	R5
     893 006314 005205                  	inc	R5
     894 006316 020527  023420          	cmp	R5, #FieldEnd
     895 006322 103747                  	blo	10$
     896 006324 000207                  	return
     897                                
     898                                ProcessFieldEndlevel:
     899 006326 012705  000062          	mov	#50., R5
     900 006332 005004                  	clr	R4
     901 006334 004737  011604          2$:	call	Random
     902 006340 072027  177772          	ash	#-6., R0
     903 006344 042700  176000          	bic	#^B1111110000000000, R0
     904 006350 020027  001560          	cmp	R0, #880.
     905 006354 002402                  	blt	4$
     906 006356 162700  001560          	sub	#880., R0
     907 006362 006300                  4$:	asl	R0
     908 006364 032760  100000  020060  	bit	#100000, Field(R0)
     909 006372 001001                  	bne	6$
     910 006374 005204                  	inc	R4
     911 006376 012760  100007  020060  6$:	mov	#COBJ_STEEL+100000, Field(R0)
     912 006404 005305                  	dec	R5
     913 006406 001403                  	beq	8$
     914 006410 020427  000016          	cmp	R4, #14.
     915 006414 103747                  	blo	2$
     916                                8$:
     917 006416 012705  020202          	mov	#Field+82., R5
     918                                10$:
     919 006422 011500                  	mov	(R5), R0
     920 006424 042700  177700          	bic	#^B1111111111000000, R0
     921 006430 006300                  	asl	R0
     922 006432 016000  005372          	mov	ObjectBaseTiles(R0), R0
     923 006436 020027  000020          	cmp	R0, #ANIMATED_BEGIN
     924 006442 103402                  	blo	20$
     925 006444 052715  100000          	bis	#100000, (R5)
     926 006450 005205                  20$:	inc	R5
     927 006452 005205                  	inc	R5
     928 006454 020527  023276          	cmp	R5, #FieldEnd-82.
     929 006460 103760                  	blo	10$
     930 006462 023727  012156  000000  	cmp	FieldX, #0
     931 006470 001402                  	beq	30$
     932 006472 005337  012156          	dec	FieldX
     933 006476 023727  012160  000000  30$:	cmp	FieldY, #0
     934 006504 001402                  	beq	40$
     935 006506 005337  012160          	dec	FieldY
     936                                40$:
     937 006512 000207                  	return
     938                                
     939                                ProcessInAndOutBoxes:
     940 006514 005737  012166          	tst	Animation
     941 006520 001402                  	beq	10$
     942 006522 052715  100000          	bis	#100000, (R5)
     943                                10$:
     944 006526 121527  000045          	cmpb	(R5), #COBJ_INBOX
     945 006532 001015                  	bne	99$
     946 006534 005037  012176          	clr	NoRockford
     947 006540 005237  012172          	inc	InboxCount
     948 006544 023727  012172  000030  	cmp	InboxCount, #^B11000
     949 006552 002405                  	blt	99$
     950 006554 012715  100046          	mov	#COBJ_PREROCKFORD_1+100000, (R5)
     951 006560 012737  000005  012220  	mov	#SND_EMERGE, CurrentSound
     952 006566 000207                  99$:	return
     953                                
     954                                ProcessHiddenOutbox:
     955 006570 005737  012154          	tst	ExitOpened
     956 006574 001402                  	beq	99$
     957 006576 012715  100005          	mov	#COBJ_OUTBOX+100000, (R5)
     958 006602 000207                  99$:	return
     959                                
     960                                ProcessMagicWall:
     961 006604 005737  012166          	tst	Animation
     962 006610 001402                  	beq	10$
     963 006612 052715  100000          	bis	#100000, (R5)
     964 006616 000207                  10$:	return
     965                                
     966                                ProcessFirefly:
     967 006620 012700  100034          	mov	#COBJ_EXP_SPACE_1+100000, R0
     968 006624 116501  000002          	movb	2(R5), R1
     969 006630 020127  000070          	cmp	R1, #COBJ_AMOEBA
     970 006634 002402                  	blt	2$
     971 006636 000137  011234          	jmp	ExplodeCurrent
     972 006642 116501  000120          2$:	movb	80.(R5), R1
     973 006646 020127  000070          	cmp	R1, #COBJ_AMOEBA
     974 006652 002402                  	blt	3$
     975 006654 000137  011234          	jmp	ExplodeCurrent
     976 006660 116501  177776          3$:	movb	-2(R5), R1
     977 006664 020127  000070          	cmp	R1, #COBJ_AMOEBA
     978 006670 002402                  	blt	4$
     979 006672 000137  011234          	jmp	ExplodeCurrent
     980 006676 116501  177660          4$:	movb	-80.(R5), R1
     981 006702 020127  000070          	cmp	R1, #COBJ_AMOEBA
     982 006706 002402                  	blt	5$
     983 006710 000137  011234          	jmp	ExplodeCurrent
     984                                5$:
     985 006714 011500                  	mov	(R5), R0
     986 006716 042700  177774          	bic	#^B1111111111111100, R0
     987 006722 006300                  	asl	R0
     988 006724 010504                  	mov	R5, R4
     989 006726 066004  006002          	add	FromDownClockwise(R0), R4
     990 006732 105714                  	tstb	(R4)
     991 006734 001013                  	bne	20$
     992 006736 006200                  	asr	R0
     993 006740 062700  000003          	add	#3, R0
     994 006744 042700  177774          	bic	#^B1111111111111100, R0
     995 006750 062700  100014          	add	#COBJ_FIREFLY_LEFT_SCAN+100000, R0
     996 006754 010014                  	mov	R0, (R4)
     997 006756 012715  100000          	mov	#100000, (R5)
     998 006762 000423                  	br	90$
     999                                20$:
    1000 006764 010504                  	mov	R5, R4
    1001 006766 066004  005772          	add	FromLeftClockwise(R0), R4
    1002 006772 105714                  	tstb	(R4)
    1003 006774 001007                  	bne	30$
    1004 006776 006200                  	asr	R0
    1005 007000 062700  100014          	add	#COBJ_FIREFLY_LEFT_SCAN+100000, R0
    1006 007004 010014                  	mov	R0, (R4)
    1007 007006 012715  100000          	mov	#100000, (R5)
    1008 007012 000407                  	br	90$
    1009                                30$:
    1010 007014 006200                  	asr	R0
    1011 007016 005200                  	inc	R0
    1012 007020 042700  177774          	bic	#^B1111111111111100, R0
    1013 007024 062700  100014          	add	#COBJ_FIREFLY_LEFT_SCAN+100000, R0
    1014 007030 010015                  	mov	R0, (R5)
    1015 007032 000207                  90$:	return
    1016                                
    1017                                ProcessButterfly:
    1018 007034 012700  100041          	mov	#COBJ_EXP_DIAMOND_1+100000, R0
    1019 007040 116501  000002          	movb	2(R5), R1
    1020 007044 020127  000070          	cmp	R1, #COBJ_AMOEBA
    1021 007050 002402                  	blt	2$
    1022 007052 000137  011234          	jmp	ExplodeCurrent
    1023 007056 116501  000120          2$:	movb	80.(R5), R1
    1024 007062 020127  000070          	cmp	R1, #COBJ_AMOEBA
    1025 007066 002402                  	blt	3$
    1026 007070 000137  011234          	jmp	ExplodeCurrent
    1027 007074 116501  177776          3$:	movb	-2(R5), R1
    1028 007100 020127  000070          	cmp	R1, #COBJ_AMOEBA
    1029 007104 002402                  	blt	4$
    1030 007106 000137  011234          	jmp	ExplodeCurrent
    1031 007112 116501  177660          4$:	movb	-80.(R5), R1
    1032 007116 020127  000070          	cmp	R1, #COBJ_AMOEBA
    1033 007122 002402                  	blt	5$
    1034 007124 000137  011234          	jmp	ExplodeCurrent
    1035                                5$:
    1036 007130 011500                  	mov	(R5), R0
    1037 007132 042700  177774          	bic	#^B1111111111111100, R0
    1038 007136 006300                  	asl	R0
    1039 007140 010504                  	mov	R5, R4
    1040 007142 066004  005772          	add	FromLeftClockwise(R0), R4
    1041 007146 105714                  	tstb	(R4)
    1042 007150 001012                  	bne	20$
    1043 007152 006200                  	asr	R0
    1044 007154 005200                  	inc	R0
    1045 007156 042700  177774          	bic	#^B1111111111111100, R0
    1046 007162 062700  100064          	add	#COBJ_BUTTERFLY_DOWN_SCAN+100000, R0
    1047 007166 010014                  	mov	R0, (R4)
    1048 007170 012715  100000          	mov	#100000, (R5)
    1049 007174 000424                  	br	90$
    1050                                20$:
    1051 007176 010504                  	mov	R5, R4
    1052 007200 066004  006002          	add	FromDownClockwise(R0), R4
    1053 007204 105714                  	tstb	(R4)
    1054 007206 001007                  	bne	30$
    1055 007210 006200                  	asr	R0
    1056 007212 062700  100064          	add	#COBJ_BUTTERFLY_DOWN_SCAN+100000, R0
    1057 007216 010014                  	mov	R0, (R4)
    1058 007220 012715  100000          	mov	#100000, (R5)
    1059 007224 000410                  	br	90$
    1060                                30$:
    1061 007226 006200                  	asr	R0
    1062 007230 062700  000003          	add	#3, R0
    1063 007234 042700  177774          	bic	#^B1111111111111100, R0
    1064 007240 062700  100064          	add	#COBJ_BUTTERFLY_DOWN_SCAN+100000, R0
    1065 007244 010015                  	mov	R0, (R5)
    1066 007246 000207                  90$:	return
    1067                                
    1068                                ProcessStationaryBoulder:
    1069 007250 105765  000120          	tstb	80.(R5)
    1070 007254 001066                  	bne	ProcessSlipperyBoulder
    1071 007256 012715  100000          	mov	#100000, (R5)
    1072 007262 012765  100023  000120  	mov	#COBJ_BOULDER_FALL_SCAN+100000, 80.(R5)
    1073 007270 000207                  	return
    1074                                
    1075                                ProcessFallingBoulder:
    1076 007272 116500  000120          	movb	80.(R5), R0
    1077 007276 001006                  	bne	10$
    1078 007300 012715  100000          	mov	#100000, (R5)
    1079 007304 012765  100023  000120  	mov	#COBJ_BOULDER_FALL_SCAN+100000, 80.(R5)
    1080 007312 000207                  	return
    1081 007314 012737  000003  012220  10$:	mov	#SND_BOULDER, CurrentSound
    1082 007322 020027  000072          	cmp	R0, #COBJ_ROCKFORD
    1083 007326 002404                  	blt	20$
    1084 007330 012700  100034          	mov	#COBJ_EXP_SPACE_1+100000, R0
    1085 007334 000137  011052          	jmp	ExplodeBelow
    1086                                20$:
    1087 007340 020027  000003          	cmp	R0, #COBJ_MAGIC
    1088 007344 001012                  	bne	30$
    1089 007346 012715  100000          	mov	#100000, (R5)
    1090 007352 105765  000240          	tstb	160.(R5)
    1091 007356 001401                  	beq	25$
    1092 007360 000207                  	return
    1093 007362 012765  100025  000240  25$:	mov	#COBJ_DIAMOND_SCAN+100000, 160.(R5)
    1094 007370 000207                  	return
    1095                                30$:
    1096 007372 042700  000007          	bic	#^B111, R0
    1097 007376 020027  000010          	cmp	R0, #COBJ_FIREFLY_LEFT
    1098 007402 001004                  	bne	40$
    1099 007404 012700  100034          	mov	#COBJ_EXP_SPACE_1+100000, R0
    1100 007410 000137  011052          	jmp	ExplodeBelow
    1101                                40$:
    1102 007414 020027  000060          	cmp	R0, #COBJ_BUTTERFLY_DOWN
    1103 007420 001004                  	bne	ProcessSlipperyBoulder
    1104 007422 012700  100041          	mov	#COBJ_EXP_DIAMOND_1+100000, R0
    1105 007426 000137  011052          	jmp	ExplodeBelow
    1106                                
    1107                                ProcessSlipperyBoulder:
    1108 007432 126527  000120  000020  	cmpb	80.(R5), #COBJ_BOULDER
    1109 007440 001413                  	beq	50$
    1110 007442 126527  000120  000024  	cmpb	80.(R5), #COBJ_DIAMOND
    1111 007450 001407                  	beq	50$
    1112 007452 126527  000120  000002  	cmpb	80.(R5), #COBJ_BRICK
    1113 007460 001403                  	beq	50$
    1114 007462 112715  000021          20$:	movb	#COBJ_BOULDER_SCAN, (R5)
    1115 007466 000207                  	return
    1116                                50$:
    1117 007470 105765  177776          	tstb	-2(R5)
    1118 007474 001011                  	bne	60$
    1119 007476 105765  000116          	tstb	78.(R5)
    1120 007502 001006                  	bne	60$
    1121 007504 012765  100023  177776  	mov	#COBJ_BOULDER_FALL_SCAN+100000, -2(R5)
    1122 007512 012715  100000          	mov	#100000, (R5)
    1123 007516 000207                  	return
    1124                                60$:
    1125 007520 105765  000002          	tstb	2(R5)
    1126 007524 001356                  	bne	20$
    1127 007526 105765  000122          	tstb	82.(R5)
    1128 007532 001353                  	bne	20$
    1129 007534 012765  100023  000002  	mov	#COBJ_BOULDER_FALL_SCAN+100000, 2(R5)
    1130 007542 012715  100000          	mov	#100000, (R5)
    1131 007546 000207                  	return
    1132                                
    1133                                ProcessStationaryDiamond:
    1134 007550 005737  012166          	tst	Animation
    1135 007554 001402                  	beq	10$
    1136 007556 052715  100000          	bis	#100000, (R5)
    1137                                10$:
    1138 007562 105765  000120          	tstb	80.(R5)
    1139 007566 001066                  	bne	ProcessSlipperyDiamond
    1140 007570 012715  100000          	mov	#100000, (R5)
    1141 007574 012765  100027  000120  	mov	#COBJ_DIAMOND_FALL_SCAN+100000, 80.(R5)
    1142 007602 000207                  	return
    1143                                
    1144                                ProcessFallingDiamond:
    1145 007604 116500  000120          	movb	80.(R5), R0
    1146 007610 001006                  	bne	10$
    1147 007612 012715  100000          	mov	#100000, (R5)
    1148 007616 012765  100027  000120  	mov	#COBJ_DIAMOND_FALL_SCAN+100000, 80.(R5)
    1149 007624 000207                  	return
    1150 007626 012737  000004  012220  10$:	mov	#SND_DIAMOND, CurrentSound
    1151 007634 020027  000072          	cmp	R0, #COBJ_ROCKFORD
    1152 007640 002404                  	blt	20$
    1153 007642 012700  100034          	mov	#COBJ_EXP_SPACE_1+100000, R0
    1154 007646 000137  011052          	jmp	ExplodeBelow
    1155                                20$:
    1156 007652 020027  000003          	cmp	R0, #COBJ_MAGIC
    1157 007656 001012                  	bne	30$
    1158 007660 012715  100000          	mov	#100000, (R5)
    1159 007664 105765  000240          	tstb	160.(R5)
    1160 007670 001401                  	beq	25$
    1161 007672 000207                  	return
    1162 007674 012765  100021  000240  25$:	mov	#COBJ_BOULDER_SCAN+100000, 160.(R5)
    1163 007702 000207                  	return
    1164                                30$:
    1165 007704 042700  000007          	bic	#^B111, R0
    1166 007710 020027  000010          	cmp	R0, #COBJ_FIREFLY_LEFT
    1167 007714 001004                  	bne	40$
    1168 007716 012700  100034          	mov	#COBJ_EXP_SPACE_1+100000, R0
    1169 007722 000137  011052          	jmp	ExplodeBelow
    1170                                40$:
    1171 007726 020027  000060          	cmp	R0, #COBJ_BUTTERFLY_DOWN
    1172 007732 001004                  	bne	ProcessSlipperyDiamond
    1173 007734 012700  100041          	mov	#COBJ_EXP_DIAMOND_1+100000, R0
    1174 007740 000137  011052          	jmp	ExplodeBelow
    1175                                
    1176                                ProcessSlipperyDiamond:
    1177 007744 116500  000120          	movb	80.(R5), R0
    1178 007750 120027  000020          	cmpb	R0, #COBJ_BOULDER
    1179 007754 001411                  	beq	50$
    1180 007756 120027  000024          	cmpb	R0, #COBJ_DIAMOND
    1181 007762 001406                  	beq	50$
    1182 007764 120027  000002          	cmpb	R0, #COBJ_BRICK
    1183 007770 001403                  	beq	50$
    1184                                10$:
    1185 007772 112715  000025          	movb	#COBJ_DIAMOND_SCAN, (R5)
    1186 007776 000207                  	return
    1187                                50$:
    1188 010000 105765  177776          	tstb	-2(R5)
    1189 010004 001011                  	bne	60$
    1190 010006 105765  000116          	tstb	78.(R5)
    1191 010012 001006                  	bne	60$
    1192 010014 012765  100027  177776  	mov	#COBJ_DIAMOND_FALL_SCAN+100000, -2(R5)
    1193 010022 012715  100000          	mov	#100000, (R5)
    1194 010026 000207                  	return
    1195                                60$:
    1196 010030 105765  000002          	tstb	2(R5)
    1197 010034 001356                  	bne	10$
    1198 010036 105765  000122          	tstb	82.(R5)
    1199 010042 001353                  	bne	10$
    1200 010044 012765  100027  000002  	mov	#COBJ_DIAMOND_FALL_SCAN+100000, 2(R5)
    1201 010052 012715  100000          	mov	#100000, (R5)
    1202 010056 000207                  	return
    1203                                
    1204                                ProcessExplosionSpace:
    1205 010060 111500                  	movb	(R5), R0
    1206 010062 005200                  	inc	R0
    1207 010064 020027  000037          	cmp	R0, #COBJ_EXP_SPACE_4
    1208 010070 003004                  	bgt	10$
    1209 010072 052700  100000          	bis	#100000, R0
    1210 010076 010015                  	mov	R0, (R5)
    1211 010100 000207                  	return
    1212 010102 012715  100000          10$:	mov	#100000, (R5)
    1213 010106 000207                  	return
    1214                                
    1215                                ProcessExplosionDia:
    1216 010110 111500                  	movb	(R5), R0
    1217 010112 005200                  	inc	R0
    1218 010114 020027  000044          	cmp	R0, #COBJ_EXP_DIAMOND_4
    1219 010120 003004                  	bgt	10$
    1220 010122 052700  100000          	bis	#100000, R0
    1221 010126 010015                  	mov	R0, (R5)
    1222 010130 000207                  	return
    1223 010132 012715  100024          10$:	mov	#COBJ_DIAMOND+100000, (R5)
    1224 010136 000207                  	return
    1225                                
    1226                                ProcessRockfordAppear:
    1227 010140 105215                  	incb	(R5)
    1228 010142 052715  100000          	bis	#100000, (R5)
    1229 010146 121527  000051          	cmpb	(R5), #COBJ_PREROCKFORD_3+1
    1230 010152 002402                  	blt	99$
    1231 010154 012715  100072          	mov	#COBJ_ROCKFORD+100000, (R5)
    1232 010160 000207                  99$:	return
    1233                                
    1234                                ProcessRockford:
    1235 010162 005037  012176          	clr	NoRockford
    1236 010166 012715  000073          	mov	#COBJ_ROCKFORD_SCAN, (R5)
    1237 010172 005737  012166          	tst	Animation
    1238 010176 001402                  	beq	10$
    1239 010200 052715  100000          	bis	#100000, (R5)
    1240                                10$:
    1241 010204 005737  157734          	tst	KeyRight
    1242 010210 001406                  	beq	20$
    1243 010212 012737  000002  012204  	mov	#+2., RockfordDir
    1244 010220 004737  010330          	call	ProcessRockfordDir
    1245 010224 000207                  	return
    1246                                20$:
    1247 010226 005737  157736          	tst	KeyLeft
    1248 010232 001406                  	beq	30$
    1249 010234 012737  177776  012204  	mov	#-2., RockfordDir
    1250 010242 004737  010330          	call	ProcessRockfordDir
    1251 010246 000207                  	return
    1252                                30$:
    1253 010250 005737  157740          	tst	KeyDown
    1254 010254 001406                  	beq	40$
    1255 010256 012737  000120  012204  	mov	#+80., RockfordDir
    1256 010264 004737  010330          	call	ProcessRockfordDir
    1257 010270 000207                  	return
    1258                                40$:
    1259 010272 005737  157742          	tst	KeyUp
    1260 010276 001406                  	beq	50$
    1261 010300 012737  177660  012204  	mov	#-80., RockfordDir
    1262 010306 004737  010330          	call	ProcessRockfordDir
    1263 010312 000207                  	return
    1264 010314 005037  012206          50$:	clr	BoulderMoving
    1265 010320 010504                  	mov	R5, R4
    1266 010322 004737  010626          	call	UpdateRockfordXY
    1267 010326 000207                  	return
    1268                                
    1269                                ProcessRockfordDir:
    1270 010330 010504                  	mov	R5, R4
    1271 010332 063704  012204          	add	RockfordDir, R4
    1272 010336 111400                  	movb	(R4), R0
    1273 010340 001007                  	bne	2$
    1274 010342 005737  157726          	tst	KeyShift
    1275 010346 001102                  	bne	90$
    1276 010350 012737  000002  012220  	mov	#SND_TICK, CurrentSound
    1277 010356 000476                  	br	90$
    1278 010360 020027  000001          2$:	cmp	R0, #COBJ_DIRT
    1279 010364 001004                  	bne	10$
    1280 010366 012737  000006  012220  	mov	#SND_DIRT, CurrentSound
    1281 010374 000467                  	br	90$
    1282 010376 020027  000024          10$:	cmp	R0, #COBJ_DIAMOND
    1283 010402 001452                  	beq	20$
    1284 010404 020027  000025          	cmp	R0, #COBJ_DIAMOND_SCAN
    1285 010410 001447                  	beq	20$
    1286 010412 020027  000005          	cmp	R0, #COBJ_OUTBOX
    1287 010416 001454                  	beq	30$
    1288 010420 020027  000020          	cmp	R0, #COBJ_BOULDER
    1289 010424 001404                  	beq	12$
    1290 010426 020027  000021          	cmp	R0, #COBJ_BOULDER_SCAN
    1291 010432 001401                  	beq	12$
    1292 010434 000433                  	br	18$
    1293                                12$:
    1294 010436 013701  012204          	mov	RockfordDir, R1
    1295 010442 020127  000002          	cmp	R1, #+2
    1296 010446 003026                  	bgt	18$
    1297 010450 020127  177776          	cmp	R1, #-2
    1298 010454 002423                  	blt	18$
    1299 010456 023727  012206  000003  	cmp	BoulderMoving, #3
    1300 010464 002003                  	bge	14$
    1301 010466 005237  012206          	inc	BoulderMoving
    1302 010472 000414                  	br	18$
    1303 010474 005037  012206          14$:	clr	BoulderMoving
    1304 010500 010403                  	mov	R4, R3
    1305 010502 063703  012204          	add	RockfordDir, R3
    1306 010506 105713                  	tstb	(R3)
    1307 010510 001005                  	bne	18$
    1308 010512 012713  100021          	mov	#COBJ_BOULDER_SCAN+100000, (R3)
    1309 010516 012714  100000          	mov	#100000, (R4)
    1310 010522 000414                  	br	90$
    1311 010524 010504                  18$:	mov	R5, R4
    1312 010526 000412                  	br	90$
    1313                                20$:
    1314 010530 012737  000004  012220  	mov	#SND_DIAMOND, CurrentSound
    1315 010536 005237  012150          	inc	Diamonds
    1316 010542 005237  012152          	inc	DiamondsUpdate
    1317 010546 000402                  	br	90$
    1318                                30$:
    1319 010550 005237  012144          	inc	LevelCleared
    1320                                90$:
    1321 010554 012700  100075          	mov	#COBJ_ROCKFORD_RIGHT_SCAN+100000, R0
    1322 010560 023727  012204  177776  	cmp	RockfordDir, #-2
    1323 010566 001002                  	bne	91$
    1324 010570 012700  100077          	mov	#COBJ_ROCKFORD_LEFT_SCAN+100000, R0
    1325                                91$:
    1326 010574 005737  157726          	tst	KeyShift
    1327 010600 001404                  	beq	92$
    1328 010602 012714  100000          	mov	#100000, (R4)
    1329 010606 010015                  	mov	R0, (R5)
    1330 010610 000405                  	br	99$
    1331 010612 012715  100000          92$:	mov	#100000, (R5)
    1332 010616 010014                  	mov	R0, (R4)
    1333 010620 004737  010626          	call	UpdateRockfordXY
    1334 010624 000207                  99$:	return
    1335                                
    1336                                UpdateRockfordXY:
    1337 010626 005000                  	clr	R0
    1338 010630 010401                  	mov	R4, R1
    1339 010632 162701  020060          	sub	#Field, R1
    1340 010636 071027  000120          	div	#80., R0
    1341 010642 006201                  	asr	R1
    1342 010644 010137  012200          	mov	R1, RockfordX
    1343 010650 010037  012202          	mov	R0, RockfordY
    1344 010654 000207                  	return
    1345                                
    1346 010656 000002  177660  177776  AmoebaGrowDir:	.word	+2., -80., -2., +80.
         010664 000120                  
    1347                                
    1348                                ProcessAmoeba:
    1349 010666 005737  012214          	tst	AmoebaCanGrow
    1350 010672 001012                  	bne	10$
    1351 010674 023727  012210  000310  	cmp	AmoebaCount, #200.
    1352 010702 002003                  	bge	2$
    1353 010704 012715  100025          	mov	#COBJ_DIAMOND_SCAN+100000, (R5)
    1354 010710 000207                  	return
    1355 010712 012715  100021          2$:	mov	#COBJ_BOULDER_SCAN+100000, (R5)
    1356 010716 000207                  	return
    1357                                10$:
    1358 010720 005737  012166          	tst	Animation
    1359 010724 001402                  	beq	20$
    1360 010726 052715  100000          	bis	#100000, (R5)
    1361 010732 005237  012212          20$:	inc	AmoebaCurCount
    1362 010736 126527  000002  000001  	cmpb	2(R5), #1
    1363 010744 101415                  	blos	30$
    1364 010746 126527  000120  000001  	cmpb	80.(R5), #1
    1365 010754 101411                  	blos	30$
    1366 010756 126527  177776  000001  	cmpb	-2(R5), #1
    1367 010764 101405                  	blos	30$
    1368 010766 126527  177660  000001  	cmpb	-80.(R5), #1
    1369 010774 101401                  	blos	30$
    1370 010776 000207                  	return
    1371 011000 005237  012216          30$:	inc	AmoebaGrowing
    1372 011004 004737  011604          	call	Random
    1373 011010 020027  176000          	cmp	R0, #176000
    1374 011014 103001                  	bhis	40$
    1375 011016 000207                  	return
    1376 011020 042700  177774          40$:	bic	#^B1111111111111100, R0
    1377 011024 006300                  	asl	R0
    1378 011026 016000  010656          	mov	AmoebaGrowDir(R0), R0
    1379 011032 060500                  	add	R5, R0
    1380 011034 121027  000001          	cmpb	(R0), #1
    1381 011040 101401                  	blos	90$
    1382 011042 000207                  	return
    1383 011044 012710  100071          90$:	mov	#COBJ_AMOEBA_SCAN+100000, (R0)
    1384 011050 000207                  	return
    1385                                
    1386                                ExplodeBelow:
    1387 011052 012737  000001  012220  	mov	#SND_BOOM, CurrentSound
    1388 011060 126527  177776  000007  	cmpb	-2(R5), #COBJ_STEEL
    1389 011066 001402                  	beq	10$
    1390 011070 010065  177776          	mov	R0, -2(R5)
    1391                                10$:
    1392 011074 121527  000007          	cmpb	(R5), #COBJ_STEEL
    1393 011100 001401                  	beq	20$
    1394 011102 010015                  	mov	R0, (R5)
    1395                                20$:
    1396 011104 005300                  	dec	R0
    1397 011106 126527  000002  000007  	cmpb	2(R5), #COBJ_STEEL
    1398 011114 001402                  	beq	30$
    1399 011116 010065  000002          	mov	R0, 2(R5)
    1400                                30$:
    1401 011122 126527  000116  000007  	cmpb	78.(R5), #COBJ_STEEL
    1402 011130 001402                  	beq	40$
    1403 011132 010065  000116          	mov	R0, 78.(R5)
    1404                                40$:
    1405 011136 126527  000120  000007  	cmpb	80.(R5), #COBJ_STEEL
    1406 011144 001402                  	beq	50$
    1407 011146 010065  000120          	mov	R0, 80.(R5)
    1408                                50$:
    1409 011152 126527  000122  000007  	cmpb	82.(R5), #COBJ_STEEL
    1410 011160 001402                  	beq	60$
    1411 011162 010065  000122          	mov	R0, 82.(R5)
    1412                                60$:
    1413 011166 126527  000236  000007  	cmpb	158.(R5), #COBJ_STEEL
    1414 011174 001402                  	beq	70$
    1415 011176 010065  000236          	mov	R0, 158.(R5)
    1416                                70$:
    1417 011202 126527  000240  000007  	cmpb	160.(R5), #COBJ_STEEL
    1418 011210 001402                  	beq	80$
    1419 011212 010065  000240          	mov	R0, 160.(R5)
    1420                                80$:
    1421 011216 126527  000242  000007  	cmpb	162.(R5), #COBJ_STEEL
    1422 011224 001402                  	beq	90$
    1423 011226 010065  000242          	mov	R0, 162.(R5)
    1424                                90$:
    1425 011232 000207                  	return
    1426                                
    1427                                ExplodeCurrent:
    1428 011234 012737  000001  012220  	mov	#SND_BOOM, CurrentSound
    1429 011242 126527  177656  000007  	cmpb	-82.(R5), #COBJ_STEEL
    1430 011250 001402                  	beq	10$
    1431 011252 010065  177656          	mov	R0, -82.(R5)
    1432                                10$:
    1433 011256 126527  177660  000007  	cmpb	-80.(R5), #COBJ_STEEL
    1434 011264 001402                  	beq	20$
    1435 011266 010065  177660          	mov	R0, -80.(R5)
    1436                                20$:
    1437 011272 126527  177662  000007  	cmpb	-78.(R5), #COBJ_STEEL
    1438 011300 001402                  	beq	30$
    1439 011302 010065  177662          	mov	R0, -78.(R5)
    1440                                30$:
    1441 011306 126527  177776  000007  	cmpb	-2.(R5), #COBJ_STEEL
    1442 011314 001402                  	beq	40$
    1443 011316 010065  177776          	mov	R0, -2.(R5)
    1444                                40$:
    1445 011322 121527  000007          	cmpb	(R5), #COBJ_STEEL
    1446 011326 001401                  	beq	50$
    1447 011330 010015                  	mov	R0, (R5)
    1448                                50$:
    1449 011332 005300                  	dec	R0
    1450 011334 126527  000002  000007  	cmpb	2(R5), #COBJ_STEEL
    1451 011342 001402                  	beq	60$
    1452 011344 010065  000002          	mov	R0, 2(R5)
    1453                                60$:
    1454 011350 126527  000116  000007  	cmpb	78.(R5), #COBJ_STEEL
    1455 011356 001402                  	beq	70$
    1456 011360 010065  000116          	mov	R0, 78.(R5)
    1457                                70$:
    1458 011364 126527  000120  000007  	cmpb	80.(R5), #COBJ_STEEL
    1459 011372 001402                  	beq	80$
    1460 011374 010065  000120          	mov	R0, 80.(R5)
    1461                                80$:
    1462 011400 126527  000122  000007  	cmpb	82.(R5), #COBJ_STEEL
    1463 011406 001402                  	beq	90$
    1464 011410 010065  000122          	mov	R0, 82.(R5)
    1465                                90$:
    1466 011414 000207                  	return
    1467                                
    1468 011416 005227                  RtiAdr:	inc	(PC)+
    1469 011420 000000                  RtiCnt:	.word	0
    1470 011422 000002                  	rti
    1471                                
    1472 011424 005237  157756          VSync:	inc	VSyncCount1
    1473 011430 005237  157760          	inc	VSyncCount2
    1474 011434 000002                  	rti
    1475                                
    1476                                VSyncWait:
    1477 011436 005000                  	clr	R0
    1478                                VSyncWait1:
    1479 011440 005200                  	inc	R0
    1480 011442 023727  157756          	cmp	VSyncCount1, (PC)+
    1481 011446 000006                  VSyncX:	.word	6.
    1482 011450 103773                  	blo	VSyncWait1
    1483 011452 005037  157756          	clr	VSyncCount1
    1484 011456 010037  012130          	mov	R0, CpuWaitCount
    1485 011462 004737  011574          	call	WaitPpu
    1486 011466 012737  000003  157776  	mov	#CmdFixWait, PpuCommand
    1487 011474 005237  012132          	inc	FrameCount
    1488 011500 032737  000003  012132  	bit	#^B11, FrameCount
    1489 011506 005037  012166          	clr	Animation
    1490 011512 001007                  	bne	10$
    1491 011514 005237  012166          	inc	Animation
    1492 011520 005237  012170          	inc	AniCounter
    1493 011524 042737  177774  012170  	bic	#^B1111111111111100, AniCounter
    1494                                10$:
    1495 011532 000207                  	return
    1496                                
    1497                                VSyncWait2:
    1498 011534 005737  157756          10$:	tst	VSyncCount1
    1499 011540 001775                  	beq	10$
    1500 011542 005037  157756          	clr	VSyncCount1
    1501 011546 005737  157756          20$:	tst	VSyncCount1
    1502 011552 001775                  	beq	20$
    1503 011554 005037  157756          	clr	VSyncCount1
    1504 011560 000207                  	return
    1505                                
    1506                                SetVreg:
    1507 011562 012704  176640          	mov	#176640, R4
    1508 011566 012705  176642          	mov	#176642, R5
    1509 011572 000207                  	return
    1510                                
    1511                                WaitPpu:
    1512 011574 005737  157776          	tst	PpuCommand
    1513 011600 001375                  	bne	WaitPpu
    1514 011602 000207                  	return
    1515                                
    1516 011604 000241                  Random:	clc
    1517 011606 006027                  	ror	(PC)+
    1518 011610 126341                  Lfsr00:	.word	126341
    1519 011612 103004                  	bcc	Lfsr03
    1520 011614 012700                  	mov	(PC)+, R0
    1521 011616 132000                  Lfsr01:	.word	132000
    1522 011620 074037  011610          	xor	R0, Lfsr00
    1523 011624 013700  011610          Lfsr03:	mov	Lfsr00, R0
    1524 011630 000207                  	return
    1525                                
    1526                                CheckStop:
    1527 011632 005737  157722          	tst	KeyStop
    1528 011636 001406                  	beq	99$
    1529 011640 005037  157722          	clr	KeyStop
    1530 011644 005037  012134          	clr	Pause
    1531 011650 005037  012122          	clr	CurrentMode
    1532 011654 000207                  99$:	return
    1533                                
    1534                                DebugInfo:
    1535 011656 005737  012124          	tst	DebugMode
    1536 011662 001426                  	beq	99$
    1537 011664 032737  000017  012132  	bit	#^B1111, FrameCount
    1538 011672 001022                  	bne	99$
    1539 011674 012701  100051          	mov	#SCRWID+1+VADDR, R1
    1540 011700 013700  157750          	mov	KeyCurrent, R0
    1541 011704 004737  002624          	call	PrintBinaryWord
    1542 011710 012701  100062          	mov	#SCRWID+10.+VADDR, R1
    1543 011714 013700  012130          	mov	CpuWaitCount, R0
    1544 011720 004737  002756          	call	PrintOctalWord
    1545 011724 012701  100066          	mov	#SCRWID+14.+VADDR, R1
    1546 011730 013700  157754          	mov	PpuWaitCount, R0
    1547 011734 004737  002756          	call	PrintOctalWord
    1548 011740 000207                  99$:	return
    1549                                
    1550                                CheckColors:
    1551 011742 005737  157720          	tst	KeyK1
    1552 011746 001443                  	beq	99$
    1553 011750 005037  157720          	clr	KeyK1
    1554 011754 004737  011574          	call	WaitPpu
    1555 011760 005137  012126          	com	RgbMode
    1556 011764 001015                  	bne	20$
    1557 011766 012737  156230  157762  	mov	#^B1101110010011000, PpuR0
    1558 011774 012737  177272  157764  	mov	#^B1111111010111010, PpuR1
    1559 012002 012737  000020  157766  	mov	#^B0000000000010000, PpuR2
    1560 012010 012737  000047  157770  	mov	#^B0000000000100111, PpuR3
    1561 012016 000414                  	br	90$
    1562 012020 012737  135230  157762  20$:	mov	#^B1011101010011000, PpuR0
    1563 012026 012737  177334  157764  	mov	#^B1111111011011100, PpuR1
    1564 012034 012737  000020  157766  	mov	#^B0000000000010000, PpuR2
    1565 012042 012737  000047  157770  	mov	#^B0000000000100111, PpuR3
    1566 012050 012737  000002  157776  90$:	mov	#CmdUpdPalette, PpuCommand
    1567 012056 000207                  99$:	return
    1568                                
    1569                                ClearTempVars:
    1570 012060 012700  012222          	mov	#tempVarsStart, R0
    1571 012064 012703  000020          	mov	#tempVarsEnd-tempVarsStart/2, R3
    1572 012070 005020                  	clr	(R0)+
    1573 012072 077302                  	sob	R3, .-2
    1574 012074 000207                  	return
    1575                                
    1576                                ClearScreen12:
    1577 012076 004737  011562          	call	SetVreg
    1578 012102 012714  100000          	mov	#100000, (R4)
    1579 012106 012703  040000          	mov	#40000, R3
    1580 012112 005015                  	clr	(R5)
    1581 012114 005214                  	inc	(R4)
    1582 012116 077303                  	sob	R3, .-4
    1583 012120 000207                  	return
    1584                                
    1585 012122 000000                  CurrentMode:		.word	0
    1586 012124 177777                  DebugMode:		.word	177777
    1587 012126 000000                  RgbMode:		.word	0
    1588 012130 000000                  CpuWaitCount:		.word	0
    1589 012132 000000                  FrameCount:		.word	0
    1590 012134 000000                  Pause:			.word	0
    1591                                
    1592 012136 000000                  Level:			.word	0
    1593 012140 000000                  LevelAddr:		.word	0
    1594 012142 000000                  LevelColor:		.word	0
    1595 012144 000000                  LevelCleared:		.word	0
    1596 012146 000000                  DiamondsNeeded:		.word	0
    1597 012150 000000                  Diamonds:		.word	0
    1598 012152 000000                  DiamondsUpdate:		.word	0
    1599 012154 000000                  ExitOpened:		.word	0
    1600                                
    1601 012156 000000                  FieldX:			.word	0
    1602 012160 000000                  FieldY:			.word	0
    1603 012162 000000                  NewFieldX:		.word	0
    1604 012164 000000                  NewFieldY:		.word	0
    1605                                
    1606 012166 000000                  Animation:		.word	0
    1607 012170 000000                  AniCounter:		.word	0
    1608 012172 000000                  InboxCount:		.word	0
    1609 012174 000000                  EmergingCount:		.word	0
    1610                                
    1611 012176 000000                  NoRockford:		.word	0
    1612 012200 000000                  RockfordX:		.word	0
    1613 012202 000000                  RockfordY:		.word	0
    1614 012204 000000                  RockfordDir:		.word	0
    1615 012206 000000                  BoulderMoving:		.word	0
    1616                                
    1617 012210 000000                  AmoebaCount:		.word	0
    1618 012212 000000                  AmoebaCurCount:		.word	0
    1619 012214 000000                  AmoebaCanGrow:		.word	0
    1620 012216 000000                  AmoebaGrowing:		.word	0
    1621                                
    1622 012220 000000                  CurrentSound:		.word	0
    1623                                
    1624                                tempVarsStart:
    1625                                
    1626 012222 000000                  varAddr:		.word	0
    1627 012224 000000                  varObject:		.word	0
    1628 012226 000000                  varCmd:			.word	0
    1629 012230 000000                  varX:			.word	0
    1630 012232 000000                  varY:			.word	0
    1631 012234 000000                  varDx:			.word	0
    1632 012236 000000                  varDy:			.word	0
    1633 012240 000000                  varLength:		.word	0
    1634 012242 000000                  varDir:			.word	0
    1635 012244 000000                  varFill:		.word	0
    1636                                
    1637 012246 000000                  tempR0:			.word	0
    1638 012250 000000                  tempR1:			.word	0
    1639 012252 000000                  tempR2:			.word	0
    1640 012254 000000                  tempR3:			.word	0
    1641 012256 000000                  tempR4:			.word	0
    1642 012260 000000                  tempR5:			.word	0
    1643                                
    1644                                tempVarsEnd:
    1645                                
    1646                                LevelsTable:
    1647 012262 012332  012366  012472  	.word	LevelData0,  LevelData1,  LevelData2,  LevelData3,  LevelData16
         012270 012514  014347          
    1648 012274 012602  012764  013160  	.word	LevelData4,  LevelData5,  LevelData6,  LevelData7,  LevelData17
         012302 013243  014416          
    1649 012306 013345  013423  013543  	.word	LevelData8,  LevelData9,  LevelData10, LevelData11, LevelData18
         012314 013664  014517          
    1650 012320 014011  014062  014167  	.word	LevelData12, LevelData13, LevelData14, LevelData15, LevelData19
         012326 014235  014570          
    1651                                
    1652                                LevelData0:
    1653 012332    000     014     012  	.byte	0, 14, 12
    1654 012335    000     020     024  	.byte	0, 20, 24, 0
         012340    000                  
    1655 012341    074     062     011  	.byte	74, 62, 11, 0
         012344    000                  
    1656 012345    102     001     007  	.byte	102, 1, 7, 36, 2, 102, 11, 16, 36, 2, 45, 3, 2, 4, 46, 20
         012350    036     002     102  
         012353    011     016     036  
         012356    002     045     003  
         012361    002     004     046  
         012364    020                  
    1657 012365    377                  	.byte	377
    1658                                
    1659                                LevelData1:
    1660 012366    001     012     003  	.byte	1, 12, 3
    1661 012371    000     020     024  	.byte	0, 20, 24, 10
         012374    010                  
    1662 012375    074     062     011  	.byte	74, 62, 11, 2
         012400    002                  
    1663 012401    102     001     006  	.byte	102, 1, 6, 46, 2, 102, 1, 15, 46, 2, 102, 10, 1, 24, 4, 102
         012404    046     002     102  
         012407    001     015     046  
         012412    002     102     010  
         012415    001     024     004  
         012420    102                  
    1664 012421    020     001     024  	.byte	20, 1, 24, 4, 102, 30, 1, 24, 4, 102, 40, 1, 24, 4, 100, 1
         012424    004     102     030  
         012427    001     024     004  
         012432    102     040     001  
         012435    024     004     100  
         012440    001                  
    1665 012441    003     046     002  	.byte	3, 46, 2, 100, 1, 11, 46, 2, 100, 1, 20, 46, 2, 100, 24, 1
         012444    100     001     011  
         012447    046     002     100  
         012452    001     020     046  
         012455    002     100     024  
         012460    001                  
    1666 012461    024     004     045  	.byte	24, 4, 45, 22, 23, 4, 22, 24, 377
         012464    022     023     004  
         012467    022     024     377  
    1667                                
    1668                                LevelData2:
    1669 012472    002     030     000  	.byte	2, 30, 0
    1670 012475    002     020     024  	.byte	2, 20, 24, 0
         012500    000                  
    1671 012501    144     062     011  	.byte	144, 62, 11, 0
         012504    000                  
    1672 012505    045     003     002  	.byte	45, 3, 2, 4, 47, 22, 377
         012510    004     047     022  
         012513    377                  
    1673                                
    1674                                LevelData3:
    1675 012514    001     044     000  	.byte	1, 44, 0
    1676 012517    020     000     000  	.byte	20, 0, 0, 0
         012522    000                  
    1677 012523    024     000     000  	.byte	24, 0, 0, 0
         012526    000                  
    1678 012527    045     001     001  	.byte	45, 1, 1, 4, 46, 24, 201, 10, 10, 4, 4, 0, 60, 12, 11, 201
         012532    004     046     024  
         012535    201     010     010  
         012540    004     004     000  
         012543    060     012     011  
         012546    201                  
    1679 012547    020     010     004  	.byte	20, 10, 4, 4, 0, 60, 22, 11, 201, 30, 10, 4, 4, 0, 60, 32
         012552    004     000     060  
         012555    022     011     201  
         012560    030     010     004  
         012563    004     000     060  
         012566    032                  
    1680 012567    011     201     040  	.byte	11, 201, 40, 10, 4, 4, 0, 60, 42, 11, 377
         012572    010     004     004  
         012575    000     060     042  
         012600    011     377          
    1681                                
    1682                                LevelData4:
    1683 012602    001     004     000  	.byte	1, 4, 0
    1684 012605    000     000     000  	.byte	0, 0, 0, 0
         012610    000                  
    1685 012611    000     000     000  	.byte	0, 0, 0, 0
         012614    000                  
    1686 012615    045     001     001  	.byte	45, 1, 1, 4, 47, 24, 200, 10, 10, 3, 3, 0, 200, 20, 10, 3
         012620    004     047     024  
         012623    200     010     010  
         012626    003     003     000  
         012631    200     020     010  
         012634    003                  
    1687 012635    003     000     200  	.byte	3, 0, 200, 30, 10, 3, 3, 0, 200, 40, 10, 3, 3, 0, 24, 11
         012640    030     010     003  
         012643    003     000     200  
         012646    040     010     003  
         012651    003     000     024  
         012654    011                  
    1688 012655    012     010     012  	.byte	12, 10, 12, 10, 24, 21, 12, 10, 22, 10, 24, 31, 12, 10, 32, 10
         012660    010     024     021  
         012663    012     010     022  
         012666    010     024     031  
         012671    012     010     032  
         012674    010                  
    1689 012675    024     041     012  	.byte	24, 41, 12, 10, 42, 10, 200, 10, 16, 3, 3, 0, 200, 20, 16, 3
         012700    010     042     010  
         012703    200     010     016  
         012706    003     003     000  
         012711    200     020     016  
         012714    003                  
    1690 012715    003     000     200  	.byte	3, 0, 200, 30, 16, 3, 3, 0, 200, 40, 16, 3, 3, 0, 24, 11
         012720    030     016     003  
         012723    003     000     200  
         012726    040     016     003  
         012731    003     000     024  
         012734    011                  
    1691 012735    020     010     012  	.byte	20, 10, 12, 16, 24, 21, 20, 10, 22, 16, 24, 31, 20, 10, 32, 16
         012740    016     024     021  
         012743    020     010     022  
         012746    016     024     031  
         012751    020     010     032  
         012754    016                  
    1692 012755    024     041     020  	.byte	24, 41, 20, 10, 42, 16, 377
         012760    010     042     016  
         012763    377                  
    1693                                
    1694                                LevelData5:
    1695 012764    000     004     000  	.byte	0, 4, 0
    1696 012767    020     000     000  	.byte	20, 0, 0, 0
         012772    000                  
    1697 012773    062     000     000  	.byte	62, 0, 0, 0
         012776    000                  
    1698 012777    202     001     001  	.byte	202, 1, 1, 12, 4, 0, 202, 1, 4, 12, 4, 0, 202, 1, 7, 12
         013002    012     004     000  
         013005    202     001     004  
         013010    012     004     000  
         013013    202     001     007  
         013016    012                  
    1699 013017    004     000     202  	.byte	4, 0, 202, 1, 12, 12, 4, 0, 101, 12, 1, 15, 4, 24, 3, 3
         013022    001     012     012  
         013025    004     000     101  
         013030    012     001     015  
         013033    004     024     003  
         013036    003                  
    1700 013037    010     004     003  	.byte	10, 4, 3, 24, 3, 6, 10, 4, 6, 24, 3, 11, 10, 4, 11, 24
         013042    024     003     006  
         013045    010     004     006  
         013050    024     003     011  
         013053    010     004     011  
         013056    024                  
    1701 013057    003     014     010  	.byte	3, 14, 10, 4, 14, 202, 35, 1, 12, 4, 0, 202, 35, 4, 12, 4
         013062    004     014     202  
         013065    035     001     012  
         013070    004     000     202  
         013073    035     004     012  
         013076    004                  
    1702 013077    000     202     035  	.byte	0, 202, 35, 7, 12, 4, 0, 202, 35, 12, 12, 4, 0, 101, 35, 1
         013102    007     012     004  
         013105    000     202     035  
         013110    012     012     004  
         013113    000     101     035  
         013116    001                  
    1703 013117    015     004     024  	.byte	15, 4, 24, 44, 3, 10, 43, 3, 24, 44, 6, 10, 43, 6, 24, 44
         013122    044     003     010  
         013125    043     003     024  
         013130    044     006     010  
         013133    043     006     024  
         013136    044                  
    1704 013137    011     010     043  	.byte	11, 10, 43, 11, 24, 44, 14, 10, 43, 14, 45, 3, 22, 4, 46, 22
         013142    011     024     044  
         013145    014     010     043  
         013150    014     045     003  
         013153    022     004     046  
         013156    022                  
    1705 013157    377                  	.byte	377
    1706                                
    1707                                LevelData6:
    1708 013160    000     017     002  	.byte	0, 17, 2
    1709 013163    000     020     010  	.byte	0, 20, 10, 0
         013166    000                  
    1710 013167    144     050     002  	.byte	144, 50, 2, 0
         013172    000                  
    1711 013173    102     001     005  	.byte	102, 1, 5, 14, 2, 102, 34, 3, 13, 2, 170, 23, 23, 2, 2, 24
         013176    014     002     102  
         013201    034     003     013  
         013204    002     170     023  
         013207    023     002     002  
         013212    024                  
    1712 013213    004     004     024  	.byte	4, 4, 24, 4, 14, 24, 4, 24, 24, 42, 2, 24, 42, 12, 24, 42
         013216    004     014     024  
         013221    004     024     024  
         013224    042     002     024  
         013227    042     012     024  
         013232    042                  
    1713 013233    024     045     024  	.byte	24, 45, 24, 1, 4, 47, 5, 377
         013236    001     004     047  
         013241    005     377          
    1714                                
    1715                                LevelData7:
    1716 013243    000     012     001  	.byte	0, 12, 1
    1717 013246    000     020     010  	.byte	0, 20, 10, 0
         013251    000                  
    1718 013252    132     062     002  	.byte	132, 62, 2, 0
         013255    000                  
    1719 013256    024     004     004  	.byte	24, 4, 4, 24, 42, 2, 24, 42, 12, 4, 0, 3, 45, 24, 1, 102
         013261    024     042     002  
         013264    024     042     012  
         013267    004     000     003  
         013272    045     024     001  
         013275    102                  
    1720 013276    001     005     014  	.byte	1, 5, 14, 2, 102, 1, 15, 14, 2, 102, 34, 3, 13, 2, 102, 34
         013301    002     102     001  
         013304    015     014     002  
         013307    102     034     003  
         013312    013     002     102  
         013315    034                  
    1721 013316    013     013     002  	.byte	13, 13, 2, 103, 16, 17, 10, 2, 24, 14, 16, 0, 16, 20, 24, 23
         013321    103     016     017  
         013324    010     002     024  
         013327    014     016     000  
         013332    016     020     024  
         013335    023                  
    1722 013336    020     101     016  	.byte	20, 101, 16, 15, 10, 2, 377
         013341    015     010     002  
         013344    377                  
    1723                                
    1724                                LevelData8:
    1725 013345    001     113     144  	.byte	1, 113, 144
    1726 013350    020     024     000  	.byte	20, 24, 0, 0
         013353    000                  
    1727 013354    360     170     000  	.byte	360, 170, 0, 0
         013357    000                  
    1728 013360    202     005     010  	.byte	202, 5, 10, 15, 15, 0, 1, 14, 10, 202, 31, 10, 15, 15, 0, 1
         013363    015     015     000  
         013366    001     014     010  
         013371    202     031     010  
         013374    015     015     000  
         013377    001                  
    1729 013400    037     010     102  	.byte	37, 10, 102, 21, 20, 11, 2, 100, 21, 21, 11, 2, 45, 7, 12, 4
         013403    021     020     011  
         013406    002     100     021  
         013411    021     011     002  
         013414    045     007     012  
         013417    004                  
    1730 013420    010     012     377  	.byte	10, 12, 377
    1731                                
    1732                                LevelData9:
    1733 013423    000     014     000  	.byte	0, 14, 0
    1734 013426    000     000     000  	.byte	0, 0, 0, 0
         013431    000                  
    1735 013432    000     000     000  	.byte	0, 0, 0, 0
         013435    000                  
    1736 013436    045     015     001  	.byte	45, 15, 1, 4, 47, 24, 124, 5, 2, 21, 3, 124, 25, 2, 21, 5
         013441    004     047     024  
         013444    124     005     002  
         013447    021     003     124  
         013452    025     002     021  
         013455    005                  
    1737 013456    200     005     011  	.byte	200, 5, 11, 21, 3, 10, 302, 1, 2, 25, 21, 0, 15, 2, 302, 7
         013461    021     003     010  
         013464    302     001     002  
         013467    025     021     000  
         013472    015     002     302  
         013475    007                  
    1738 013476    004     015     015  	.byte	4, 15, 15, 0, 15, 4, 302, 11, 6, 11, 11, 0, 15, 6, 302, 13
         013501    000     015     004  
         013504    302     011     006  
         013507    011     011     000  
         013512    015     006     302  
         013515    013                  
    1739 013516    010     005     005  	.byte	10, 5, 5, 0, 15, 10, 202, 3, 4, 3, 17, 10, 0, 4, 4, 124
         013521    000     015     010  
         013524    202     003     004  
         013527    003     017     010  
         013532    000     004     004  
         013535    124                  
    1740 013536    004     016     004  	.byte	4, 16, 4, 4, 377
         013541    004     377          
    1741                                
    1742                                LevelData10:
    1743 013543    002     006     000  	.byte	2, 6, 0
    1744 013546    000     020     010  	.byte	0, 20, 10, 0
         013551    000                  
    1745 013552    144     120     002  	.byte	144, 120, 2, 0
         013555    000                  
    1746 013556    102     012     001  	.byte	102, 12, 1, 11, 4, 102, 24, 1, 11, 4, 102, 36, 1, 11, 4, 102
         013561    011     004     102  
         013564    024     001     011  
         013567    004     102     036  
         013572    001     011     004  
         013575    102                  
    1747 013576    011     024     011  	.byte	11, 24, 11, 0, 102, 14, 15, 21, 2, 102, 5, 11, 11, 2, 102, 17
         013601    000     102     014  
         013604    015     021     002  
         013607    102     005     011  
         013612    011     002     102  
         013615    017                  
    1748 013616    011     011     002  	.byte	11, 11, 2, 102, 31, 11, 11, 2, 102, 34, 21, 13, 1, 24, 4, 1
         013621    102     031     011  
         013624    011     002     102  
         013627    034     021     013  
         013632    001     024     004  
         013635    001                  
    1749 013636    024     016     001  	.byte	24, 16, 1, 24, 30, 1, 24, 42, 1, 24, 4, 24, 24, 43, 23, 45
         013641    024     030     001  
         013644    024     042     001  
         013647    024     004     024  
         013652    024     043     023  
         013655    045                  
    1750 013656    024     022     004  	.byte	24, 22, 4, 46, 17, 377
         013661    046     017     377  
    1751                                
    1752                                LevelData11:
    1753 013664    000     023     000  	.byte	0, 23, 0
    1754 013667    000     020     024  	.byte	0, 20, 24, 0
         013672    000                  
    1755 013673    074     062     011  	.byte	74, 62, 11, 0
         013676    000                  
    1756 013677    102     012     003  	.byte	102, 12, 3, 22, 4, 102, 16, 3, 22, 4, 102, 22, 3, 22, 4, 102
         013702    022     004     102  
         013705    016     003     022  
         013710    004     102     022  
         013713    003     022     004  
         013716    102                  
    1757 013717    026     003     022  	.byte	26, 3, 22, 4, 102, 2, 4, 13, 2, 102, 2, 10, 13, 2, 102, 2
         013722    004     102     002  
         013725    004     013     002  
         013730    102     002     010  
         013733    013     002     102  
         013736    002                  
    1758 013737    014     017     002  	.byte	14, 17, 2, 102, 2, 20, 13, 2, 201, 36, 2, 4, 4, 0, 10, 40
         013742    102     002     020  
         013745    013     002     201  
         013750    036     002     004  
         013753    004     000     010  
         013756    040                  
    1759 013757    003     201     036  	.byte	3, 201, 36, 7, 4, 4, 0, 10, 40, 10, 201, 36, 14, 4, 4, 0
         013762    007     004     004  
         013765    000     010     040  
         013770    010     201     036  
         013773    014     004     004  
         013776    000                  
    1760 013777    010     040     015  	.byte	10, 40, 15, 45, 3, 22, 4, 47, 24, 377
         014002    045     003     022  
         014005    004     047     024  
         014010    377                  
    1761                                
    1762                                LevelData12:
    1763 014011    000     062     000  	.byte	0, 62, 0
    1764 014014    020     000     000  	.byte	20, 0, 0, 0
         014017    000                  
    1765 014020    050     000     000  	.byte	50, 0, 0, 0
         014023    000                  
    1766 014024    045     022     001  	.byte	45, 22, 1, 4, 12, 1, 70, 24, 1, 102, 5, 20, 36, 2, 160, 5
         014027    004     012     001  
         014032    070     024     001  
         014035    102     005     020  
         014040    036     002     160  
         014043    005                  
    1767 014044    021     036     002  	.byte	21, 36, 2, 120, 5, 22, 36, 2, 301, 5, 23, 36, 2, 377
         014047    120     005     022  
         014052    036     002     301  
         014055    005     023     036  
         014060    002     377          
    1768                                
    1769                                LevelData13:
    1770 014062    001     036     000  	.byte	1, 36, 0
    1771 014065    020     000     000  	.byte	20, 0, 0, 0
         014070    000                  
    1772 014071    000     000     000  	.byte	0, 0, 0, 0
         014074    000                  
    1773 014075    201     012     010  	.byte	201, 12, 10, 15, 15, 0, 160, 13, 11, 14, 3, 301, 14, 10, 3, 15
         014100    015     015     000  
         014103    160     013     011  
         014106    014     003     301  
         014111    014     010     003  
         014114    015                  
    1774 014115    301     020     010  	.byte	301, 20, 10, 3, 15, 301, 24, 10, 3, 15, 120, 26, 6, 14, 2, 110
         014120    003     015     301  
         014123    024     010     003  
         014126    015     120     026  
         014131    006     014     002  
         014134    110                  
    1775 014135    026     005     014  	.byte	26, 5, 14, 2, 301, 27, 4, 3, 4, 301, 33, 4, 3, 4, 301, 37
         014140    002     301     027  
         014143    004     003     004  
         014146    301     033     004  
         014151    003     004     301  
         014154    037                  
    1776 014155    004     003     004  	.byte	4, 3, 4, 45, 3, 1, 4, 47, 22, 377
         014160    045     003     001  
         014163    004     047     022  
         014166    377                  
    1777                                
    1778                                LevelData14:
    1779 014167    002     017     001  	.byte	2, 17, 1
    1780 014172    000     020     010  	.byte	0, 20, 10, 0
         014175    000                  
    1781 014176    144     120     002  	.byte	144, 120, 2, 0
         014201    000                  
    1782 014202    102     002     002  	.byte	102, 2, 2, 12, 3, 102, 17, 13, 12, 1, 101, 14, 14, 3, 2, 103
         014205    012     003     102  
         014210    017     013     012  
         014213    001     101     014  
         014216    014     003     002  
         014221    103                  
    1783 014222    014     015     003  	.byte	14, 15, 3, 2, 4, 24, 24, 45, 24, 1, 377
         014225    002     004     024  
         014230    024     045     024  
         014233    001     377          
    1784                                
    1785                                LevelData15:
    1786 014235    000     014     001  	.byte	0, 14, 1
    1787 014240    020     000     000  	.byte	20, 0, 0, 0
         014243    000                  
    1788 014244    062     000     000  	.byte	62, 0, 0, 0
         014247    000                  
    1789 014250    045     001     001  	.byte	45, 1, 1, 4, 47, 2, 201, 10, 21, 4, 4, 0, 10, 12, 22, 302
         014253    004     047     002  
         014256    201     010     021  
         014261    004     004     000  
         014264    010     012     022  
         014267    302                  
    1790 014270    007     010     006  	.byte	7, 10, 6, 10, 103, 7, 10, 6, 2, 201, 20, 21, 4, 4, 0, 10
         014273    010     103     007  
         014276    010     006     002  
         014301    201     020     021  
         014304    004     004     000  
         014307    010                  
    1791 014310    022     022     302  	.byte	22, 22, 302, 17, 10, 6, 10, 103, 17, 10, 6, 2, 201, 30, 21, 4
         014313    017     010     006  
         014316    010     103     017  
         014321    010     006     002  
         014324    201     030     021  
         014327    004                  
    1792 014330    004     000     010  	.byte	4, 0, 10, 32, 22, 201, 40, 21, 4, 4, 0, 10, 42, 22, 377
         014333    032     022     201  
         014336    040     021     004  
         014341    004     000     010  
         014344    042     022     377  
    1793                                
    1794                                LevelData16:
    1795 014347    000     006     012  	.byte	0, 6, 12
    1796 014352    000     024     000  	.byte	0, 24, 0, 0
         014355    000                  
    1797 014356    377     011     000  	.byte	377, 11, 0, 0
         014361    000                  
    1798 014362    207     000     000  	.byte	207, 0, 0, 50, 26, 7, 207, 0, 0, 24, 14, 0, 62, 12, 12, 20
         014365    050     026     007  
         014370    207     000     000  
         014373    024     014     000  
         014376    062     012     012  
         014401    020                  
    1799 014402    012     002     001  	.byte	12, 2, 1, 12, 3, 45, 3, 3, 4, 22, 12, 377
         014405    012     003     045  
         014410    003     003     004  
         014413    022     012     377  
    1800                                
    1801                                LevelData17:
    1802 014416    000     020     012  	.byte	0, 20, 12
    1803 014421    000     000     000  	.byte	0, 0, 0, 0
         014424    000                  
    1804 014425    000     000     000  	.byte	0, 0, 0, 0
         014430    000                  
    1805 014431    207     000     000  	.byte	207, 0, 0, 50, 26, 7, 207, 0, 0, 24, 14, 1, 120, 1, 1, 11
         014434    050     026     007  
         014437    207     000     000  
         014442    024     014     001  
         014445    120     001     001  
         014450    011                  
    1806 014451    003     110     002  	.byte	3, 110, 2, 1, 10, 3, 124, 1, 3, 10, 3, 120, 1, 4, 7, 3
         014454    001     010     003  
         014457    124     001     003  
         014462    010     003     120  
         014465    001     004     007  
         014470    003                  
    1807 014471    120     022     001  	.byte	120, 22, 1, 11, 5, 124, 22, 3, 10, 5, 120, 22, 4, 7, 5, 45
         014474    011     005     124  
         014477    022     003     010  
         014502    005     120     022  
         014505    004     007     005  
         014510    045                  
    1808 014511    001     002     004  	.byte	1, 2, 4, 22, 2, 377
         014514    022     002     377  
    1809                                
    1810                                LevelData18:
    1811 014517    000     016     012  	.byte	0, 16, 12
    1812 014522    000     000     000  	.byte	0, 0, 0, 0
         014525    000                  
    1813 014526    000     000     000  	.byte	0, 0, 0, 0
         014531    000                  
    1814 014532    207     000     000  	.byte	207, 0, 0, 50, 26, 7, 207, 0, 0, 24, 14, 0, 124, 1, 12, 22
         014535    050     026     007  
         014540    207     000     000  
         014543    024     014     000  
         014546    124     001     012  
         014551    022                  
    1815 014552    002     210     017  	.byte	2, 210, 17, 7, 4, 4, 10, 45, 10, 1, 4, 22, 5, 377
         014555    007     004     004  
         014560    010     045     010  
         014563    001     004     022  
         014566    005     377          
    1816                                
    1817                                LevelData19:
    1818 014570    000     006     000  	.byte	0, 6, 0
    1819 014573    000     000     000  	.byte	0, 0, 0, 0
         014576    000                  
    1820 014577    000     000     000  	.byte	0, 0, 0, 0
         014602    000                  
    1821 014603    207     000     000  	.byte	207, 0, 0, 50, 26, 7, 207, 0, 0, 24, 14, 1, 320, 13, 1, 3
         014606    050     026     007  
         014611    207     000     000  
         014614    024     014     001  
         014617    320     013     001  
         014622    003                  
    1822 014623    002     200     013  	.byte	2, 200, 13, 5, 3, 6, 0, 103, 13, 4, 3, 2, 103, 13, 10, 3
         014626    005     003     006  
         014631    000     103     013  
         014634    004     003     002  
         014637    103     013     010  
         014642    003                  
    1823 014643    002     120     010  	.byte	2, 120, 10, 5, 3, 3, 45, 3, 1, 4, 11, 10, 377
         014646    005     003     003  
         014651    045     003     001  
         014654    004     011     010  
         014657    377                  
    1824                                
    1825                                	.even
    1826                                
    1827                                TilesCpuData:
    1828 014660 000000  000000  000000  	.word	0, 0, 0, 0, 0, 0, 0, 0
         014666 000000  000000  000000  
         014674 000000  000000          
    1829 014700 000000  000000  000000  	.word	0, 0, 0, 0, 0, 0, 0, 0
         014706 000000  000000  000000  
         014714 000000  000000          
    1830                                
    1831 014720 000000  000000  000000  	.word	0, 0, 0, 0, 0, 42, 0, 0
         014726 000000  000000  000042  
         014734 000000  000000          
    1832 014740 000000  000000  000000  	.word	0, 0, 0, 0, 42, 0, 0, 0
         014746 000000  000042  000000  
         014754 000000  000000          
    1833                                
    1834 014760 000377  000377  000377  	.word	377, 377, 377, 231, 231, 273, 377, 377
         014766 000231  000231  000273  
         014774 000377  000377          
    1835 015000 000377  000377  000231  	.word	377, 377, 231, 231, 273, 377, 377, 377
         015006 000231  000273  000377  
         015014 000377  000377          
    1836                                
    1837 015020 177777  177777  177777  	.word	177777, 177777, 177777, 114631, 114631, 114673, 177777, 177777
         015026 114631  114631  114673  
         015034 177777  177777          
    1838 015040 177777  177777  114631  	.word	177777, 177777, 114631, 114631, 114673, 177777, 177777, 177777
         015046 114631  114673  177777  
         015054 177777  177777          
    1839                                
    1840 015060 122000  111400  025104  	.word	122000, 111400, 25104, 135400, 156400, 52042, 143031, 36500
         015066 135400  156400  052042  
         015074 143031  036500          
    1841 015100 167020  034502  122422  	.word	167020, 34502, 122422, 126102, 52400, 131400, 23410, 51000
         015106 126102  052400  131400  
         015114 023410  051000          
    1842                                
    1843 015120 000000  000000  000000  	.word	0, 0, 0, 0, 0, 0, 0, 0
         015126 000000  000000  000000  
         015134 000000  000000          
    1844 015140 000000  000000  000000  	.word	0, 0, 0, 0, 0, 0, 0, 0
         015146 000000  000000  000000  
         015154 000000  000000          
    1845                                
    1846 015160 000244  000223  000156  	.word	244, 223, 156, 273, 335, 166, 337, 175
         015166 000273  000335  000166  
         015174 000337  000175          
    1847 015200 000376  000173  000267  	.word	376, 173, 267, 356, 125, 263, 57, 122
         015206 000356  000125  000263  
         015214 000057  000122          
    1848                                
    1849 015220 000356  000314  000000  	.word	356, 314, 0, 0, 273, 63, 0, 0
         015226 000000  000273  000063  
         015234 000000  000000          
    1850 015240 000356  000314  000000  	.word	356, 314, 0, 0, 273, 63, 0, 0
         015246 000000  000273  000063  
         015254 000000  000000          
    1851                                
    1852 015260 000356  021314  167000  	.word	356, 21314, 167000, 0, 273, 104063, 135400, 0
         015266 000000  000273  104063  
         015274 135400  000000          
    1853 015300 000356  021314  167000  	.word	356, 21314, 167000, 0, 273, 104063, 135400, 0
         015306 000000  000273  104063  
         015314 135400  000000          
    1854                                
    1855 015320 000356  000314  000000  	.word	356, 314, 0, 0, 273, 63, 0, 0
         015326 000000  000273  000063  
         015334 000000  000000          
    1856 015340 000356  000314  000000  	.word	356, 314, 0, 0, 273, 63, 0, 0
         015346 000000  000273  000063  
         015354 000000  000000          
    1857                                
    1858 015360 016034  027072  076567  	.word	16034, 27072, 76567, 165766, 173750, 156642, 171714, 157640
         015366 165766  173750  156642  
         015374 171714  157640          
    1859 015400 076600  055640  176400  	.word	76600, 55640, 176400, 175400, 73400, 77000, 22020, 14000
         015406 175400  073400  077000  
         015414 022020  014000          
    1860                                
    1861 015420 016034  025072  072567  	.word	16034, 25072, 72567, 161366, 160350, 100242, 140314, 100240
         015426 161366  160350  100242  
         015434 140314  100240          
    1862 015440 000200  000240  000000  	.word	200, 240, 0, 0, 0, 0, 20, 0
         015446 000000  000000  000000  
         015454 000020  000000          
    1863                                
    1864 015460 016034  027072  076567  	.word	16034, 27072, 76567, 165766, 173750, 156642, 171714, 157640
         015466 165766  173750  156642  
         015474 171714  157640          
    1865 015500 076600  055640  176400  	.word	76600, 55640, 176400, 175400, 73400, 77000, 22020, 14000
         015506 175400  073400  077000  
         015514 022020  014000          
    1866                                
    1867 015520 000000  000000  000000  	.word	0, 0, 0, 0, 20040, 2004, 11022, 44110
         015526 000000  020040  002004  
         015534 011022  044110          
    1868 015540 010020  002004  021042  	.word	10020, 2004, 21042, 14030, 0, 0, 0, 0
         015546 014030  000000  000000  
         015554 000000  000000          
    1869                                
    1870 015560 000000  000000  000000  	.word	0, 0, 0, 20040, 4010, 41102, 20040, 5012
         015566 020040  004010  041102  
         015574 020040  005012          
    1871 015600 020040  011022  024050  	.word	20040, 11022, 24050, 42104, 12024, 0, 0, 0
         015606 042104  012024  000000  
         015614 000000  000000          
    1872                                
    1873 015620 000000  000000  051122  	.word	0, 0, 51122, 4010, 41102, 2004, 41102, 4411
         015626 004010  041102  002004  
         015634 041102  004411          
    1874 015640 000000  042505  001002  	.word	0, 42505, 1002, 4010, 40501, 14030, 1002, 0
         015646 004010  040501  014030  
         015654 001002  000000          
    1875                                
    1876 015660 014030  000030  022044  	.word	14030, 30, 22044, 44, 41102, 102, 100653, 40325
         015666 000044  041102  000102  
         015674 100653  040325          
    1877 015700 177777  040353  041102  	.word	177777, 40353, 41102, 102, 22044, 44, 14030, 30
         015706 000102  022044  000044  
         015714 014030  000030          
    1878                                
    1879 015720 014030  000030  022044  	.word	14030, 30, 22044, 54, 41126, 36176, 100653, 201
         015726 000054  041126  036176  
         015734 100653  000201          
    1880 015740 100601  000201  041102  	.word	100601, 201, 41102, 102, 22044, 44, 14030, 30
         015746 000102  022044  000044  
         015754 014030  000030          
    1881                                
    1882 015760 014030  000030  036074  	.word	14030, 30, 36074, 54, 41102, 102, 100601, 201
         015766 000054  041102  000102  
         015774 100601  000201          
    1883 016000 100601  000201  041102  	.word	100601, 201, 41102, 102, 22054, 64, 14030, 30
         016006 000102  022054  000064  
         016014 014030  000030          
    1884                                
    1885 016020 014030  000030  022044  	.word	14030, 30, 22044, 44, 41102, 102, 100601, 201
         016026 000044  041102  000102  
         016034 100601  000201          
    1886 016040 100601  000253  041126  	.word	100601, 253, 41126, 36176, 22054, 44, 14030, 30
         016046 036176  022054  000044  
         016054 014030  000030          
    1887                                
    1888 016060 177777  000314  000000  	.word	177777, 314, 0, 0, 273, 63, 0, 0
         016066 000000  000273  000063  
         016074 000000  000000          
    1889 016100 000356  000314  000000  	.word	356, 314, 0, 0, 273, 63, 0, 177777
         016106 000000  000273  000063  
         016114 000000  177777          
    1890                                
    1891 016120 177777  000231  000000  	.word	177777, 231, 0, 0, 167, 146, 0, 0
         016126 000000  000167  000146  
         016134 000000  000000          
    1892 016140 000335  000231  000000  	.word	335, 231, 0, 0, 167, 146, 0, 177777
         016146 000000  000167  000146  
         016154 000000  177777          
    1893                                
    1894 016160 177777  000063  000000  	.word	177777, 63, 0, 0, 356, 314, 0, 0
         016166 000000  000356  000314  
         016174 000000  000000          
    1895 016200 000273  000063  000000  	.word	273, 63, 0, 0, 356, 314, 0, 177777
         016206 000000  000356  000314  
         016214 000000  177777          
    1896                                
    1897 016220 177777  000146  000000  	.word	177777, 146, 0, 0, 335, 231, 0, 0
         016226 000000  000335  000231  
         016234 000000  000000          
    1898 016240 000167  000146  000000  	.word	167, 146, 0, 0, 335, 231, 0, 177777
         016246 000000  000335  000231  
         016254 000000  177777          
    1899                                
    1900 016260 177400  177400  100400  	.word	177400, 177400, 100400, 100400, 136400, 136400, 136430, 136430
         016266 100400  136400  136400  
         016274 136430  136430          
    1901 016300 136430  136430  136400  	.word	136430, 136430, 136400, 136400, 100400, 100400, 177400, 177400
         016306 136400  100400  100400  
         016314 177400  177400          
    1902                                
    1903 016320 000000  000000  077000  	.word	0, 0, 77000, 77000, 77074, 77074, 77044, 77044
         016326 077000  077074  077074  
         016334 077044  077044          
    1904 016340 077044  077044  077074  	.word	77044, 77044, 77074, 77074, 77000, 77000, 0, 0
         016346 077074  077000  077000  
         016354 000000  000000          
    1905                                
    1906 016360 177400  177400  177576  	.word	177400, 177400, 177576, 177576, 177502, 177502, 163502, 163502
         016366 177576  177502  177502  
         016374 163502  163502          
    1907 016400 163502  163502  177502  	.word	163502, 163502, 177502, 177502, 177576, 177576, 177400, 177400
         016406 177502  177576  177576  
         016414 177400  177400          
    1908                                
    1909 016420 177777  177777  177601  	.word	177777, 177777, 177601, 177601, 141601, 141601, 155601, 155601
         016426 177601  141601  141601  
         016434 155601  155601          
    1910 016440 155601  155601  141601  	.word	155601, 155601, 141601, 141601, 177601, 177601, 177777, 177777
         016446 141601  177601  177601  
         016454 177777  177777          
    1911                                
    1912 016460 100401  100400  141603  	.word	100401, 100400, 141603, 141601, 163404, 163400, 14010, 14000
         016466 141601  163404  163400  
         016474 014010  014000          
    1913 016500 177410  177400  163707  	.word	177410, 177400, 163707, 163703, 141402, 141400, 100400, 100400
         016506 163703  141402  141400  
         016514 100400  100400          
    1914                                
    1915 016520 041002  041002  041000  	.word	41002, 41002, 41000, 41000, 63004, 63000, 14010, 14000
         016526 041000  063004  063000  
         016534 014010  014000          
    1916 016540 077010  077000  063106  	.word	77010, 77000, 63106, 63102, 41002, 41000, 41000, 41000
         016546 063102  041002  041000  
         016554 041000  041000          
    1917                                
    1918 016560 022004  022000  022004  	.word	22004, 22000, 22004, 22000, 22000, 22000, 14010, 14000
         016566 022000  022000  022000  
         016574 014010  014000          
    1919 016600 014010  014000  022000  	.word	14010, 14000, 22000, 22000, 22000, 22000, 22000, 22000
         016606 022000  022000  022000  
         016614 022000  022000          
    1920                                
    1921 016620 041002  041002  041000  	.word	41002, 41002, 41000, 41000, 63004, 63000, 14010, 14000
         016626 041000  063004  063000  
         016634 014010  014000          
    1922 016640 077010  077000  063106  	.word	77010, 77000, 63106, 63102, 41002, 41000, 41000, 41000
         016646 063102  041002  041000  
         016654 041000  041000          
    1923                                
    1924 016660 000000  022044  036074  	.word	0, 22044, 36074, 55132, 55132, 36074, 30, 36074
         016666 055132  055132  036074  
         016674 000030  036074          
    1925 016700 055132  022074  014030  	.word	55132, 22074, 14030, 30, 36030, 22000, 22000, 63146
         016706 000030  036030  022000  
         016714 022000  063146          
    1926                                
    1927 016720 000000  022044  036074  	.word	0, 22044, 36074, 55132, 55132, 36074, 30, 36074
         016726 055132  055132  036074  
         016734 000030  036074          
    1928 016740 055132  022074  014030  	.word	55132, 22074, 14030, 30, 36030, 22000, 22000, 63146
         016746 000030  036030  022000  
         016754 022000  063146          
    1929                                
    1930 016760 000000  022044  036074  	.word	0, 22044, 36074, 55132, 55132, 36074, 30, 36074
         016766 055132  055132  036074  
         016774 000030  036074          
    1931 017000 055132  022074  014030  	.word	55132, 22074, 14030, 30, 36030, 22000, 23006, 60140
         017006 000030  036030  022000  
         017014 023006  060140          
    1932                                
    1933 017020 000000  022044  036074  	.word	0, 22044, 36074, 55132, 55132, 36074, 30, 36074
         017026 055132  055132  036074  
         017034 000030  036074          
    1934 017040 055132  022074  014030  	.word	55132, 22074, 14030, 30, 36030, 22000, 23006, 60140
         017046 000030  036030  022000  
         017054 023006  060140          
    1935                                
    1936 017060 000000  014030  036074  	.word	0, 14030, 36074, 56134, 56134, 36074, 30, 14030
         017066 056134  056134  036074  
         017074 000030  014030          
    1937 017100 014030  020070  014030  	.word	14030, 20070, 14030, 30, 34030, 27000, 23002, 61142
         017106 000030  034030  027000  
         017114 023002  061142          
    1938                                
    1939 017120 000000  000000  014030  	.word	0, 0, 14030, 36074, 56134, 56134, 36074, 14030
         017126 036074  056134  056134  
         017134 036074  014030          
    1940 017140 014030  020070  014030  	.word	14030, 20070, 14030, 30, 14030, 14000, 14000, 30060
         017146 000030  014030  014000  
         017154 014000  030060          
    1941                                
    1942 017160 000000  000000  014030  	.word	0, 0, 14030, 36074, 56134, 56134, 36074, 14030
         017166 036074  056134  056134  
         017174 036074  014030          
    1943 017200 014030  020070  014030  	.word	14030, 20070, 14030, 30, 14030, 34000, 34000, 14030
         017206 000030  014030  034000  
         017214 034000  014030          
    1944                                
    1945 017220 000000  014030  036074  	.word	0, 14030, 36074, 56134, 56134, 36074, 30, 14030
         017226 056134  056134  036074  
         017234 000030  014030          
    1946 017240 014030  020070  014030  	.word	14030, 20070, 14030, 30, 14030, 14000, 14000, 30060
         017246 000030  014030  014000  
         017254 014000  030060          
    1947                                
    1948 017260 000000  014030  036074  	.word	0, 14030, 36074, 35072, 35072, 36074, 30, 14030
         017266 035072  035072  036074  
         017274 000030  014030          
    1949 017300 014030  002034  014030  	.word	14030, 2034, 14030, 30, 14030, 14000, 34040, 26054
         017306 000030  014030  014000  
         017314 034040  026054          
    1950                                
    1951 017320 000000  000000  014030  	.word	0, 0, 14030, 36074, 35072, 35072, 36074, 14030
         017326 036074  035072  035072  
         017334 036074  014030          
    1952 017340 014030  002034  014030  	.word	14030, 2034, 14030, 30, 14030, 16000, 16000, 14030
         017346 000030  014030  016000  
         017354 016000  014030          
    1953                                
    1954 017360 000000  000000  014030  	.word	0, 0, 14030, 36074, 35072, 35072, 36074, 14030
         017366 036074  035072  035072  
         017374 036074  014030          
    1955 017400 014030  002034  014030  	.word	14030, 2034, 14030, 30, 14030, 14000, 34040, 26054
         017406 000030  014030  014000  
         017414 034040  026054          
    1956                                
    1957 017420 000000  014030  036074  	.word	0, 14030, 36074, 35072, 35072, 36074, 30, 14030
         017426 035072  035072  036074  
         017434 000030  014030          
    1958 017440 014030  002034  014030  	.word	14030, 2034, 14030, 30, 16030, 72000, 62100, 43106
         017446 000030  016030  072000  
         017454 062100  043106          
    1959                                
    1960 017460 000000  000000  000000  	.word	0, 0, 0, 0, 0, 42, 0, 0
         017466 000000  000000  000042  
         017474 000000  000000          
    1961 017500 000000  000000  000000  	.word	0, 0, 0, 0, 42, 0, 0, 0
         017506 000000  000042  000000  
         017514 000000  000000          
    1962                                
    1963 017520 000000  000000  000000  	.word	0, 0, 0, 0, 0, 42, 0, 0
         017526 000000  000000  000042  
         017534 000000  000000          
    1964 017540 000000  000000  000000  	.word	0, 0, 0, 0, 42, 0, 0, 0
         017546 000000  000042  000000  
         017554 000000  000000          
    1965                                
    1966 017560 000000  000000  000000  	.word	0, 0, 0, 0, 0, 0, 0, 0
         017566 000000  000000  000000  
         017574 000000  000000          
    1967 017600 000000  000000  000000  	.word	0, 0, 0, 0, 0, 0, 0, 0
         017606 000000  000000  000000  
         017614 000000  000000          
    1968                                
    1969 017620 000000  000000  000000  	.word	0, 0, 0, 0, 0, 0, 0, 0
         017626 000000  000000  000000  
         017634 000000  000000          
    1970 017640 000000  000000  000000  	.word	0, 0, 0, 0, 0, 0, 0, 0
         017646 000000  000000  000000  
         017654 000000  000000          
    1971                                
    1972 017660 000357  000377  000376  	.word	357, 377, 376, 174, 174, 174, 376, 377
         017666 000174  000174  000174  
         017674 000376  000377          
    1973 017700 000377  000176  000074  	.word	377, 176, 74, 74, 74, 176, 377, 377
         017706 000074  000074  000176  
         017714 000377  000377          
    1974                                
    1975 017720 000307  000357  000177  	.word	307, 357, 177, 76, 34, 76, 177, 377
         017726 000076  000034  000076  
         017734 000177  000377          
    1976 017740 000377  000377  000176  	.word	377, 377, 176, 74, 176, 377, 357, 307
         017746 000074  000176  000377  
         017754 000357  000307          
    1977                                
    1978 017760 000203  000307  000357  	.word	203, 307, 357, 177, 76, 177, 377, 377
         017766 000177  000076  000177  
         017774 000377  000377          
    1979 020000 000377  000377  000377  	.word	377, 377, 377, 377, 377, 357, 307, 203
         020006 000377  000377  000357  
         020014 000307  000203          
    1980                                
    1981 020020 000307  000357  000377  	.word	307, 357, 377, 376, 174, 376, 377, 377
         020026 000376  000174  000376  
         020034 000377  000377          
    1982 020040 000377  000377  000174  	.word	377, 377, 174, 74, 174, 377, 357, 307
         020046 000074  000174  000377  
         020054 000357  000307          
    1983                                
    1984                                PPUStart:
    1985 020060    207     000     000  	.byte	207, 0, 0, 0, 40, 11, 200, 0, 40, 11, 200, 0, 40, 11, 200, 0
         020063    000     040     011  
         020066    200     000     040  
         020071    011     200     000  
         020074    040     011     200  
         020077    000                  
    1986 020100    040     011     200  	.byte	40, 11, 200, 0, 40, 11, 200, 0, 40, 11, 200, 0, 40, 11, 200, 0
         020103    000     040     011  
         020106    200     000     040  
         020111    011     200     000  
         020114    040     011     200  
         020117    000                  
    1987 020120    040     011     200  	.byte	40, 11, 200, 0, 40, 11, 200, 0, 40, 11, 200, 0, 40, 11, 200, 0
         020123    000     040     011  
         020126    200     000     040  
         020131    011     200     000  
         020134    040     011     200  
         020137    000                  
    1988 020140    040     011     200  	.byte	40, 11, 200, 0, 40, 11, 200, 0, 40, 11, 200, 0, 40, 11, 200, 0
         020143    000     040     011  
         020146    200     000     040  
         020151    011     200     000  
         020154    040     011     200  
         020157    000                  
    1989 020160    040     011     200  	.byte	40, 11, 200, 0, 40, 11, 200, 0, 40, 11, 200, 0, 40, 11, 200, 0
         020163    000     040     011  
         020166    200     000     040  
         020171    011     200     000  
         020174    040     011     200  
         020177    000                  
    1990 020200    040     011     200  	.byte	40, 11, 200, 0, 40, 11, 200, 0, 40, 11, 200, 0, 40, 11, 200, 0
         020203    000     040     011  
         020206    200     000     040  
         020211    011     200     000  
         020214    040     011     200  
         020217    000                  
    1991 020220    040     011     200  	.byte	40, 11, 200, 0, 40, 11, 200, 0, 40, 11, 200, 0, 40, 11, 200, 0
         020223    000     040     011  
         020226    200     000     040  
         020231    011     200     000  
         020234    040     011     200  
         020237    000                  
    1992 020240    040     011     200  	.byte	40, 11, 200, 0, 40, 11, 200, 0, 40, 11, 200, 0, 40, 11, 200, 0
         020243    000     040     011  
         020246    200     000     040  
         020251    011     200     000  
         020254    040     011     200  
         020257    000                  
    1993 020260    040     011     200  	.byte	40, 11, 200, 0, 40, 11, 200, 0, 40, 11, 200, 0, 40, 11, 200, 0
         020263    000     040     011  
         020266    200     000     040  
         020271    011     200     000  
         020274    040     011     200  
         020277    000                  
    1994 020300    040     011     200  	.byte	40, 11, 200, 0, 40, 11, 200, 0, 40, 11, 200, 0, 40, 11, 200, 0
         020303    000     040     011  
         020306    200     000     040  
         020311    011     200     000  
         020314    040     011     200  
         020317    000                  
    1995 020320    040     011     200  	.byte	40, 11, 200, 0, 40, 11, 200, 0, 40, 11, 200, 0, 40, 11, 200, 0
         020323    000     040     011  
         020326    200     000     040  
         020331    011     200     000  
         020334    040     011     200  
         020337    000                  
    1996 020340    040     011     200  	.byte	40, 11, 200, 0, 40, 11, 200, 0, 0, 0, 16, 2, 40, 11, 200, 0
         020343    000     040     011  
         020346    200     000     000  
         020351    000     016     002  
         020354    040     011     200  
         020357    000                  
    1997 020360    040     011     200  	.byte	40, 11, 200, 0, 40, 11, 200, 0, 40, 11, 200, 0, 40, 11, 200, 0
         020363    000     040     011  
         020366    200     000     040  
         020371    011     200     000  
         020374    040     011     200  
         020377    000                  
    1998 020400    040     011     200  	.byte	40, 11, 200, 0, 40, 11, 200, 0, 40, 11, 200, 0, 40, 11, 200, 0
         020403    000     040     011  
         020406    200     000     040  
         020411    011     200     000  
         020414    040     011     200  
         020417    000                  
    1999 020420    040     011     200  	.byte	40, 11, 200, 0, 40, 11, 200, 0, 40, 11, 200, 0, 40, 11, 200, 0
         020423    000     040     011  
         020426    200     000     040  
         020431    011     200     000  
         020434    040     011     200  
         020437    000                  
    2000 020440    040     011     200  	.byte	40, 11, 200, 0, 40, 11, 200, 0, 40, 11, 200, 0, 40, 11, 200, 0
         020443    000     040     011  
         020446    200     000     040  
         020451    011     200     000  
         020454    040     011     200  
         020457    000                  
    2001 020460    040     011     200  	.byte	40, 11, 200, 0, 40, 11, 200, 0, 40, 11, 200, 0, 40, 11, 200, 0
         020463    000     040     011  
         020466    200     000     040  
         020471    011     200     000  
         020474    040     011     200  
         020477    000                  
    2002 020500    040     011     200  	.byte	40, 11, 200, 0, 40, 11, 200, 0, 40, 11, 200, 0, 40, 11, 200, 0
         020503    000     040     011  
         020506    200     000     040  
         020511    011     200     000  
         020514    040     011     200  
         020517    000                  
    2003 020520    040     011     200  	.byte	40, 11, 200, 0, 40, 11, 200, 0, 40, 11, 200, 0, 40, 11, 200, 0
         020523    000     040     011  
         020526    200     000     040  
         020531    011     200     000  
         020534    040     011     200  
         020537    000                  
    2004 020540    040     011     200  	.byte	40, 11, 200, 0, 40, 11, 200, 0, 40, 11, 200, 0, 40, 11, 200, 0
         020543    000     040     011  
         020546    200     000     040  
         020551    011     200     000  
         020554    040     011     200  
         020557    000                  
    2005 020560    040     011     200  	.byte	40, 11, 200, 0, 40, 11, 200, 0, 40, 11, 200, 0, 40, 11, 200, 0
         020563    000     040     011  
         020566    200     000     040  
         020571    011     200     000  
         020574    040     011     200  
         020577    000                  
    2006 020600    040     011     200  	.byte	40, 11, 200, 0, 40, 11, 200, 0, 40, 11, 200, 0, 40, 11, 200, 0
         020603    000     040     011  
         020606    200     000     040  
         020611    011     200     000  
         020614    040     011     200  
         020617    000                  
    2007 020620    000     000     000  	.byte	0, 0, 0, 0, 0, 0, 0, 0, 0, 0, 0, 0, 0, 0, 0, 0
         020623    000     000     000  
         020626    000     000     000  
         020631    000     000     000  
         020634    000     000     000  
         020637    000                  
    2008 020640    000     000     000  	.byte	0, 0, 0, 0, 0, 0, 0, 0, 0, 0, 0, 0, 0, 0, 0, 0
         020643    000     000     000  
         020646    000     000     000  
         020651    000     000     000  
         020654    000     000     000  
         020657    000                  
    2009 020660    000     000     000  	.byte	0, 0, 0, 0, 0, 0, 0, 0, 0, 0, 0, 0, 0, 0, 0, 0
         020663    000     000     000  
         020666    000     000     000  
         020671    000     000     000  
         020674    000     000     000  
         020677    000                  
    2010 020700    000     000     000  	.byte	0, 0, 0, 0, 0, 0, 0, 0, 0, 0, 0, 0, 0, 0, 0, 0
         020703    000     000     000  
         020706    000     000     000  
         020711    000     000     000  
         020714    000     000     000  
         020717    000                  
    2011 020720    000     000     000  	.byte	0, 0, 0, 0, 0, 0, 0, 0, 0, 0, 0, 0, 0, 0, 0, 0
         020723    000     000     000  
         020726    000     000     000  
         020731    000     000     000  
         020734    000     000     000  
         020737    000                  
    2012 020740    000     000     000  	.byte	0, 0, 0, 0, 0, 0, 0, 0, 0, 0, 0, 0, 0, 0, 0, 0
         020743    000     000     000  
         020746    000     000     000  
         020751    000     000     000  
         020754    000     000     000  
         020757    000                  
    2013 020760    000     000     000  	.byte	0, 0, 0, 0, 0, 0, 0, 0, 0, 0, 0, 0, 0, 0, 0, 0
         020763    000     000     000  
         020766    000     000     000  
         020771    000     000     000  
         020774    000     000     000  
         020777    000                  
    2014 021000    000     000     000  	.byte	0, 0, 0, 0, 0, 0, 0, 0, 0, 0, 0, 0, 0, 0, 0, 0
         021003    000     000     000  
         021006    000     000     000  
         021011    000     000     000  
         021014    000     000     000  
         021017    000                  
    2015 021020    000     000     000  	.byte	0, 0, 0, 0, 0, 0, 0, 0, 0, 0, 0, 0, 0, 0, 0, 0
         021023    000     000     000  
         021026    000     000     000  
         021031    000     000     000  
         021034    000     000     000  
         021037    000                  
    2016 021040    000     000     000  	.byte	0, 0, 0, 0, 0, 0, 0, 0, 0, 0, 0, 0, 0, 0, 0, 0
         021043    000     000     000  
         021046    000     000     000  
         021051    000     000     000  
         021054    000     000     000  
         021057    000                  
    2017 021060    027     215     200  	.byte	27, 215, 200, 0, 137, 0, 134, 10, 230, 334, 272, 376, 0, 0, 22, 2
         021063    000     137     000  
         021066    134     010     230  
         021071    334     272     376  
         021074    000     000     022  
         021077    002                  
    2018 021100    020     000     047  	.byte	20, 0, 47, 0, 0, 0, 30, 2, 0, 0, 34, 2, 0, 0, 40, 2
         021103    000     000     000  
         021106    030     002     000  
         021111    000     034     002  
         021114    000     000     040  
         021117    002                  
    2019 021120    000     000     044  	.byte	0, 0, 44, 2, 0, 0, 50, 2, 0, 0, 54, 2, 0, 0, 60, 2
         021123    002     000     000  
         021126    050     002     000  
         021131    000     054     002  
         021134    000     000     060  
         021137    002                  
    2020 021140    000     000     064  	.byte	0, 0, 64, 2, 0, 0, 70, 2, 0, 0, 74, 2, 0, 0, 100, 2
         021143    002     000     000  
         021146    070     002     000  
         021151    000     074     002  
         021154    000     000     100  
         021157    002                  
    2021 021160    000     000     104  	.byte	0, 0, 104, 2, 0, 0, 110, 2, 0, 0, 114, 2, 0, 0, 120, 2
         021163    002     000     000  
         021166    110     002     000  
         021171    000     114     002  
         021174    000     000     120  
         021177    002                  
    2022 021200    000     000     124  	.byte	0, 0, 124, 2, 0, 0, 130, 2, 0, 200, 134, 2, 50, 200, 140, 2
         021203    002     000     000  
         021206    130     002     000  
         021211    200     134     002  
         021214    050     200     140  
         021217    002                  
    2023 021220    120     200     144  	.byte	120, 200, 144, 2, 170, 200, 150, 2, 240, 200, 154, 2, 310, 200, 160, 2
         021223    002     170     200  
         021226    150     002     240  
         021231    200     154     002  
         021234    310     200     160  
         021237    002                  
    2024 021240    360     200     164  	.byte	360, 200, 164, 2, 30, 201, 170, 2, 100, 201, 174, 2, 150, 201, 200, 2
         021243    002     030     201  
         021246    170     002     100  
         021251    201     174     002  
         021254    150     201     200  
         021257    002                  
    2025 021260    220     201     204  	.byte	220, 201, 204, 2, 270, 201, 210, 2, 340, 201, 214, 2, 10, 202, 220, 2
         021263    002     270     201  
         021266    210     002     340  
         021271    201     214     002  
         021274    010     202     220  
         021277    002                  
    2026 021300    060     202     224  	.byte	60, 202, 224, 2, 130, 202, 230, 2, 200, 202, 234, 2, 250, 202, 240, 2
         021303    002     130     202  
         021306    230     002     200  
         021311    202     234     002  
         021314    250     202     240  
         021317    002                  
    2027 021320    320     202     244  	.byte	320, 202, 244, 2, 370, 202, 250, 2, 40, 203, 254, 2, 110, 203, 260, 2
         021323    002     370     202  
         021326    250     002     040  
         021331    203     254     002  
         021334    110     203     260  
         021337    002                  
    2028 021340    160     203     264  	.byte	160, 203, 264, 2, 230, 203, 270, 2, 300, 203, 274, 2, 350, 203, 300, 2
         021343    002     230     203  
         021346    270     002     300  
         021351    203     274     002  
         021354    350     203     300  
         021357    002                  
    2029 021360    020     204     304  	.byte	20, 204, 304, 2, 70, 204, 310, 2, 140, 204, 314, 2, 210, 204, 320, 2
         021363    002     070     204  
         021366    310     002     140  
         021371    204     314     002  
         021374    210     204     320  
         021377    002                  
    2030 021400    260     204     324  	.byte	260, 204, 324, 2, 330, 204, 330, 2, 0, 205, 334, 2, 50, 205, 340, 2
         021403    002     330     204  
         021406    330     002     000  
         021411    205     334     002  
         021414    050     205     340  
         021417    002                  
    2031 021420    120     205     344  	.byte	120, 205, 344, 2, 170, 205, 350, 2, 240, 205, 354, 2, 310, 205, 360, 2
         021423    002     170     205  
         021426    350     002     240  
         021431    205     354     002  
         021434    310     205     360  
         021437    002                  
    2032 021440    360     205     364  	.byte	360, 205, 364, 2, 30, 206, 370, 2, 100, 206, 374, 2, 150, 206, 0, 3
         021443    002     030     206  
         021446    370     002     100  
         021451    206     374     002  
         021454    150     206     000  
         021457    003                  
    2033 021460    220     206     004  	.byte	220, 206, 4, 3, 270, 206, 10, 3, 340, 206, 14, 3, 10, 207, 20, 3
         021463    003     270     206  
         021466    010     003     340  
         021471    206     014     003  
         021474    010     207     020  
         021477    003                  
    2034 021500    060     207     024  	.byte	60, 207, 24, 3, 130, 207, 30, 3, 200, 207, 34, 3, 250, 207, 40, 3
         021503    003     130     207  
         021506    030     003     200  
         021511    207     034     003  
         021514    250     207     040  
         021517    003                  
    2035 021520    320     207     044  	.byte	320, 207, 44, 3, 370, 207, 50, 3, 40, 210, 54, 3, 110, 210, 60, 3
         021523    003     370     207  
         021526    050     003     040  
         021531    210     054     003  
         021534    110     210     060  
         021537    003                  
    2036 021540    160     210     064  	.byte	160, 210, 64, 3, 230, 210, 70, 3, 300, 210, 74, 3, 350, 210, 100, 3
         021543    003     230     210  
         021546    070     003     300  
         021551    210     074     003  
         021554    350     210     100  
         021557    003                  
    2037 021560    020     211     104  	.byte	20, 211, 104, 3, 70, 211, 110, 3, 140, 211, 114, 3, 210, 211, 120, 3
         021563    003     070     211  
         021566    110     003     140  
         021571    211     114     003  
         021574    210     211     120  
         021577    003                  
    2038 021600    260     211     124  	.byte	260, 211, 124, 3, 330, 211, 130, 3, 0, 212, 134, 3, 50, 212, 140, 3
         021603    003     330     211  
         021606    130     003     000  
         021611    212     134     003  
         021614    050     212     140  
         021617    003                  
    2039 021620    120     212     144  	.byte	120, 212, 144, 3, 170, 212, 150, 3, 240, 212, 154, 3, 310, 212, 160, 3
         021623    003     170     212  
         021626    150     003     240  
         021631    212     154     003  
         021634    310     212     160  
         021637    003                  
    2040 021640    360     212     164  	.byte	360, 212, 164, 3, 30, 213, 170, 3, 100, 213, 174, 3, 150, 213, 200, 3
         021643    003     030     213  
         021646    170     003     100  
         021651    213     174     003  
         021654    150     213     200  
         021657    003                  
    2041 021660    220     213     204  	.byte	220, 213, 204, 3, 270, 213, 210, 3, 340, 213, 214, 3, 10, 214, 220, 3
         021663    003     270     213  
         021666    210     003     340  
         021671    213     214     003  
         021674    010     214     220  
         021677    003                  
    2042 021700    060     214     224  	.byte	60, 214, 224, 3, 130, 214, 230, 3, 200, 214, 234, 3, 250, 214, 240, 3
         021703    003     130     214  
         021706    230     003     200  
         021711    214     234     003  
         021714    250     214     240  
         021717    003                  
    2043 021720    320     214     244  	.byte	320, 214, 244, 3, 370, 214, 250, 3, 40, 215, 254, 3, 110, 215, 260, 3
         021723    003     370     214  
         021726    250     003     040  
         021731    215     254     003  
         021734    110     215     260  
         021737    003                  
    2044 021740    160     215     264  	.byte	160, 215, 264, 3, 230, 215, 270, 3, 300, 215, 274, 3, 350, 215, 300, 3
         021743    003     230     215  
         021746    270     003     300  
         021751    215     274     003  
         021754    350     215     300  
         021757    003                  
    2045 021760    020     216     304  	.byte	20, 216, 304, 3, 70, 216, 310, 3, 140, 216, 314, 3, 210, 216, 320, 3
         021763    003     070     216  
         021766    310     003     140  
         021771    216     314     003  
         021774    210     216     320  
         021777    003                  
    2046 022000    260     216     324  	.byte	260, 216, 324, 3, 330, 216, 330, 3, 0, 217, 334, 3, 50, 217, 340, 3
         022003    003     330     216  
         022006    330     003     000  
         022011    217     334     003  
         022014    050     217     340  
         022017    003                  
    2047 022020    120     217     344  	.byte	120, 217, 344, 3, 170, 217, 350, 3, 240, 217, 354, 3, 310, 217, 360, 3
         022023    003     170     217  
         022026    350     003     240  
         022031    217     354     003  
         022034    310     217     360  
         022037    003                  
    2048 022040    360     217     364  	.byte	360, 217, 364, 3, 30, 220, 370, 3, 100, 220, 374, 3, 150, 220, 0, 4
         022043    003     030     220  
         022046    370     003     100  
         022051    220     374     003  
         022054    150     220     000  
         022057    004                  
    2049 022060    220     220     004  	.byte	220, 220, 4, 4, 270, 220, 10, 4, 340, 220, 14, 4, 10, 221, 20, 4
         022063    004     270     220  
         022066    010     004     340  
         022071    220     014     004  
         022074    010     221     020  
         022077    004                  
    2050 022100    060     221     024  	.byte	60, 221, 24, 4, 130, 221, 30, 4, 200, 221, 34, 4, 250, 221, 40, 4
         022103    004     130     221  
         022106    030     004     200  
         022111    221     034     004  
         022114    250     221     040  
         022117    004                  
    2051 022120    320     221     044  	.byte	320, 221, 44, 4, 370, 221, 50, 4, 40, 222, 54, 4, 110, 222, 60, 4
         022123    004     370     221  
         022126    050     004     040  
         022131    222     054     004  
         022134    110     222     060  
         022137    004                  
    2052 022140    160     222     064  	.byte	160, 222, 64, 4, 230, 222, 70, 4, 300, 222, 74, 4, 350, 222, 100, 4
         022143    004     230     222  
         022146    070     004     300  
         022151    222     074     004  
         022154    350     222     100  
         022157    004                  
    2053 022160    020     223     104  	.byte	20, 223, 104, 4, 70, 223, 110, 4, 140, 223, 114, 4, 210, 223, 120, 4
         022163    004     070     223  
         022166    110     004     140  
         022171    223     114     004  
         022174    210     223     120  
         022177    004                  
    2054 022200    260     223     124  	.byte	260, 223, 124, 4, 330, 223, 130, 4, 0, 224, 134, 4, 50, 224, 140, 4
         022203    004     330     223  
         022206    130     004     000  
         022211    224     134     004  
         022214    050     224     140  
         022217    004                  
    2055 022220    120     224     144  	.byte	120, 224, 144, 4, 170, 224, 150, 4, 240, 224, 154, 4, 310, 224, 160, 4
         022223    004     170     224  
         022226    150     004     240  
         022231    224     154     004  
         022234    310     224     160  
         022237    004                  
    2056 022240    360     224     164  	.byte	360, 224, 164, 4, 30, 225, 170, 4, 100, 225, 174, 4, 150, 225, 200, 4
         022243    004     030     225  
         022246    170     004     100  
         022251    225     174     004  
         022254    150     225     200  
         022257    004                  
    2057 022260    220     225     204  	.byte	220, 225, 204, 4, 270, 225, 210, 4, 340, 225, 214, 4, 10, 226, 220, 4
         022263    004     270     225  
         022266    210     004     340  
         022271    225     214     004  
         022274    010     226     220  
         022277    004                  
    2058 022300    060     226     224  	.byte	60, 226, 224, 4, 130, 226, 230, 4, 200, 226, 234, 4, 250, 226, 240, 4
         022303    004     130     226  
         022306    230     004     200  
         022311    226     234     004  
         022314    250     226     240  
         022317    004                  
    2059 022320    320     226     244  	.byte	320, 226, 244, 4, 370, 226, 250, 4, 40, 227, 254, 4, 110, 227, 260, 4
         022323    004     370     226  
         022326    250     004     040  
         022331    227     254     004  
         022334    110     227     260  
         022337    004                  
    2060 022340    160     227     264  	.byte	160, 227, 264, 4, 230, 227, 270, 4, 300, 227, 274, 4, 350, 227, 300, 4
         022343    004     230     227  
         022346    270     004     300  
         022351    227     274     004  
         022354    350     227     300  
         022357    004                  
    2061 022360    020     230     304  	.byte	20, 230, 304, 4, 70, 230, 310, 4, 140, 230, 314, 4, 210, 230, 320, 4
         022363    004     070     230  
         022366    310     004     140  
         022371    230     314     004  
         022374    210     230     320  
         022377    004                  
    2062 022400    260     230     324  	.byte	260, 230, 324, 4, 330, 230, 330, 4, 0, 231, 334, 4, 50, 231, 340, 4
         022403    004     330     230  
         022406    330     004     000  
         022411    231     334     004  
         022414    050     231     340  
         022417    004                  
    2063 022420    120     231     344  	.byte	120, 231, 344, 4, 170, 231, 350, 4, 240, 231, 354, 4, 310, 231, 360, 4
         022423    004     170     231  
         022426    350     004     240  
         022431    231     354     004  
         022434    310     231     360  
         022437    004                  
    2064 022440    360     231     364  	.byte	360, 231, 364, 4, 30, 232, 370, 4, 100, 232, 374, 4, 150, 232, 0, 5
         022443    004     030     232  
         022446    370     004     100  
         022451    232     374     004  
         022454    150     232     000  
         022457    005                  
    2065 022460    220     232     004  	.byte	220, 232, 4, 5, 270, 232, 10, 5, 340, 232, 14, 5, 10, 233, 20, 5
         022463    005     270     232  
         022466    010     005     340  
         022471    232     014     005  
         022474    010     233     020  
         022477    005                  
    2066 022500    060     233     024  	.byte	60, 233, 24, 5, 130, 233, 30, 5, 200, 233, 34, 5, 250, 233, 40, 5
         022503    005     130     233  
         022506    030     005     200  
         022511    233     034     005  
         022514    250     233     040  
         022517    005                  
    2067 022520    320     233     044  	.byte	320, 233, 44, 5, 370, 233, 50, 5, 40, 234, 54, 5, 110, 234, 60, 5
         022523    005     370     233  
         022526    050     005     040  
         022531    234     054     005  
         022534    110     234     060  
         022537    005                  
    2068 022540    160     234     064  	.byte	160, 234, 64, 5, 230, 234, 70, 5, 300, 234, 74, 5, 350, 234, 100, 5
         022543    005     230     234  
         022546    070     005     300  
         022551    234     074     005  
         022554    350     234     100  
         022557    005                  
    2069 022560    020     235     104  	.byte	20, 235, 104, 5, 70, 235, 110, 5, 140, 235, 114, 5, 210, 235, 120, 5
         022563    005     070     235  
         022566    110     005     140  
         022571    235     114     005  
         022574    210     235     120  
         022577    005                  
    2070 022600    260     235     124  	.byte	260, 235, 124, 5, 330, 235, 130, 5, 0, 236, 134, 5, 50, 236, 140, 5
         022603    005     330     235  
         022606    130     005     000  
         022611    236     134     005  
         022614    050     236     140  
         022617    005                  
    2071 022620    120     236     144  	.byte	120, 236, 144, 5, 170, 236, 150, 5, 240, 236, 154, 5, 310, 236, 160, 5
         022623    005     170     236  
         022626    150     005     240  
         022631    236     154     005  
         022634    310     236     160  
         022637    005                  
    2072 022640    360     236     164  	.byte	360, 236, 164, 5, 30, 237, 170, 5, 100, 237, 174, 5, 150, 237, 200, 5
         022643    005     030     237  
         022646    170     005     100  
         022651    237     174     005  
         022654    150     237     200  
         022657    005                  
    2073 022660    220     237     204  	.byte	220, 237, 204, 5, 270, 237, 210, 5, 340, 237, 214, 5, 10, 240, 220, 5
         022663    005     270     237  
         022666    210     005     340  
         022671    237     214     005  
         022674    010     240     220  
         022677    005                  
    2074 022700    060     240     224  	.byte	60, 240, 224, 5, 130, 240, 230, 5, 200, 240, 234, 5, 250, 240, 240, 5
         022703    005     130     240  
         022706    230     005     200  
         022711    240     234     005  
         022714    250     240     240  
         022717    005                  
    2075 022720    320     240     244  	.byte	320, 240, 244, 5, 370, 240, 250, 5, 40, 241, 254, 5, 110, 241, 260, 5
         022723    005     370     240  
         022726    250     005     040  
         022731    241     254     005  
         022734    110     241     260  
         022737    005                  
    2076 022740    160     241     264  	.byte	160, 241, 264, 5, 230, 241, 270, 5, 300, 241, 274, 5, 350, 241, 300, 5
         022743    005     230     241  
         022746    270     005     300  
         022751    241     274     005  
         022754    350     241     300  
         022757    005                  
    2077 022760    020     242     304  	.byte	20, 242, 304, 5, 70, 242, 310, 5, 140, 242, 314, 5, 210, 242, 320, 5
         022763    005     070     242  
         022766    310     005     140  
         022771    242     314     005  
         022774    210     242     320  
         022777    005                  
    2078 023000    260     242     324  	.byte	260, 242, 324, 5, 330, 242, 330, 5, 0, 243, 334, 5, 50, 243, 340, 5
         023003    005     330     242  
         023006    330     005     000  
         023011    243     334     005  
         023014    050     243     340  
         023017    005                  
    2079 023020    120     243     344  	.byte	120, 243, 344, 5, 170, 243, 350, 5, 240, 243, 354, 5, 310, 243, 360, 5
         023023    005     170     243  
         023026    350     005     240  
         023031    243     354     005  
         023034    310     243     360  
         023037    005                  
    2080 023040    360     243     364  	.byte	360, 243, 364, 5, 30, 244, 370, 5, 100, 244, 374, 5, 150, 244, 0, 6
         023043    005     030     244  
         023046    370     005     100  
         023051    244     374     005  
         023054    150     244     000  
         023057    006                  
    2081 023060    220     244     004  	.byte	220, 244, 4, 6, 270, 244, 10, 6, 340, 244, 14, 6, 10, 245, 20, 6
         023063    006     270     244  
         023066    010     006     340  
         023071    244     014     006  
         023074    010     245     020  
         023077    006                  
    2082 023100    060     245     024  	.byte	60, 245, 24, 6, 130, 245, 30, 6, 200, 245, 34, 6, 250, 245, 40, 6
         023103    006     130     245  
         023106    030     006     200  
         023111    245     034     006  
         023114    250     245     040  
         023117    006                  
    2083 023120    320     245     044  	.byte	320, 245, 44, 6, 370, 245, 50, 6, 40, 246, 54, 6, 110, 246, 60, 6
         023123    006     370     245  
         023126    050     006     040  
         023131    246     054     006  
         023134    110     246     060  
         023137    006                  
    2084 023140    160     246     064  	.byte	160, 246, 64, 6, 230, 246, 70, 6, 300, 246, 74, 6, 350, 246, 100, 6
         023143    006     230     246  
         023146    070     006     300  
         023151    246     074     006  
         023154    350     246     100  
         023157    006                  
    2085 023160    020     247     104  	.byte	20, 247, 104, 6, 70, 247, 110, 6, 140, 247, 114, 6, 210, 247, 120, 6
         023163    006     070     247  
         023166    110     006     140  
         023171    247     114     006  
         023174    210     247     120  
         023177    006                  
    2086 023200    260     247     124  	.byte	260, 247, 124, 6, 330, 247, 130, 6, 0, 250, 134, 6, 50, 250, 140, 6
         023203    006     330     247  
         023206    130     006     000  
         023211    250     134     006  
         023214    050     250     140  
         023217    006                  
    2087 023220    120     250     144  	.byte	120, 250, 144, 6, 170, 250, 150, 6, 240, 250, 154, 6, 310, 250, 160, 6
         023223    006     170     250  
         023226    150     006     240  
         023231    250     154     006  
         023234    310     250     160  
         023237    006                  
    2088 023240    360     250     164  	.byte	360, 250, 164, 6, 30, 251, 170, 6, 100, 251, 174, 6, 150, 251, 200, 6
         023243    006     030     251  
         023246    170     006     100  
         023251    251     174     006  
         023254    150     251     200  
         023257    006                  
    2089 023260    220     251     204  	.byte	220, 251, 204, 6, 270, 251, 210, 6, 340, 251, 214, 6, 10, 252, 220, 6
         023263    006     270     251  
         023266    210     006     340  
         023271    251     214     006  
         023274    010     252     220  
         023277    006                  
    2090 023300    060     252     224  	.byte	60, 252, 224, 6, 130, 252, 230, 6, 200, 252, 234, 6, 250, 252, 240, 6
         023303    006     130     252  
         023306    230     006     200  
         023311    252     234     006  
         023314    250     252     240  
         023317    006                  
    2091 023320    320     252     244  	.byte	320, 252, 244, 6, 370, 252, 250, 6, 40, 253, 254, 6, 110, 253, 260, 6
         023323    006     370     252  
         023326    250     006     040  
         023331    253     254     006  
         023334    110     253     260  
         023337    006                  
    2092 023340    160     253     264  	.byte	160, 253, 264, 6, 230, 253, 270, 6, 300, 253, 274, 6, 350, 253, 300, 6
         023343    006     230     253  
         023346    270     006     300  
         023351    253     274     006  
         023354    350     253     300  
         023357    006                  
    2093 023360    020     254     304  	.byte	20, 254, 304, 6, 70, 254, 310, 6, 140, 254, 314, 6, 210, 254, 320, 6
         023363    006     070     254  
         023366    310     006     140  
         023371    254     314     006  
         023374    210     254     320  
         023377    006                  
    2094 023400    260     254     324  	.byte	260, 254, 324, 6, 330, 254, 330, 6, 0, 255, 334, 6, 50, 255, 340, 6
         023403    006     330     254  
         023406    330     006     000  
         023411    255     334     006  
         023414    050     255     340  
         023417    006                  
    2095 023420    120     255     344  	.byte	120, 255, 344, 6, 170, 255, 350, 6, 240, 255, 354, 6, 310, 255, 360, 6
         023423    006     170     255  
         023426    350     006     240  
         023431    255     354     006  
         023434    310     255     360  
         023437    006                  
    2096 023440    360     255     364  	.byte	360, 255, 364, 6, 30, 256, 370, 6, 100, 256, 374, 6, 150, 256, 0, 7
         023443    006     030     256  
         023446    370     006     100  
         023451    256     374     006  
         023454    150     256     000  
         023457    007                  
    2097 023460    220     256     004  	.byte	220, 256, 4, 7, 270, 256, 10, 7, 340, 256, 14, 7, 10, 257, 20, 7
         023463    007     270     256  
         023466    010     007     340  
         023471    256     014     007  
         023474    010     257     020  
         023477    007                  
    2098 023500    060     257     024  	.byte	60, 257, 24, 7, 130, 257, 30, 7, 200, 257, 34, 7, 250, 257, 40, 7
         023503    007     130     257  
         023506    030     007     200  
         023511    257     034     007  
         023514    250     257     040  
         023517    007                  
    2099 023520    320     257     044  	.byte	320, 257, 44, 7, 370, 257, 50, 7, 40, 260, 54, 7, 110, 260, 60, 7
         023523    007     370     257  
         023526    050     007     040  
         023531    260     054     007  
         023534    110     260     060  
         023537    007                  
    2100 023540    160     260     064  	.byte	160, 260, 64, 7, 230, 260, 70, 7, 300, 260, 74, 7, 350, 260, 100, 7
         023543    007     230     260  
         023546    070     007     300  
         023551    260     074     007  
         023554    350     260     100  
         023557    007                  
    2101 023560    020     261     104  	.byte	20, 261, 104, 7, 70, 261, 110, 7, 140, 261, 114, 7, 210, 261, 120, 7
         023563    007     070     261  
         023566    110     007     140  
         023571    261     114     007  
         023574    210     261     120  
         023577    007                  
    2102 023600    260     261     124  	.byte	260, 261, 124, 7, 330, 261, 130, 7, 0, 262, 134, 7, 50, 262, 140, 7
         023603    007     330     261  
         023606    130     007     000  
         023611    262     134     007  
         023614    050     262     140  
         023617    007                  
    2103 023620    120     262     144  	.byte	120, 262, 144, 7, 170, 262, 150, 7, 240, 262, 154, 7, 310, 262, 160, 7
         023623    007     170     262  
         023626    150     007     240  
         023631    262     154     007  
         023634    310     262     160  
         023637    007                  
    2104 023640    360     262     164  	.byte	360, 262, 164, 7, 30, 263, 170, 7, 100, 263, 174, 7, 150, 263, 200, 7
         023643    007     030     263  
         023646    170     007     100  
         023651    263     174     007  
         023654    150     263     200  
         023657    007                  
    2105 023660    220     263     204  	.byte	220, 263, 204, 7, 270, 263, 210, 7, 340, 263, 214, 7, 10, 264, 220, 7
         023663    007     270     263  
         023666    210     007     340  
         023671    263     214     007  
         023674    010     264     220  
         023677    007                  
    2106 023700    060     264     224  	.byte	60, 264, 224, 7, 130, 264, 230, 7, 200, 264, 234, 7, 250, 264, 240, 7
         023703    007     130     264  
         023706    230     007     200  
         023711    264     234     007  
         023714    250     264     240  
         023717    007                  
    2107 023720    320     264     244  	.byte	320, 264, 244, 7, 370, 264, 250, 7, 40, 265, 254, 7, 110, 265, 260, 7
         023723    007     370     264  
         023726    250     007     040  
         023731    265     254     007  
         023734    110     265     260  
         023737    007                  
    2108 023740    160     265     264  	.byte	160, 265, 264, 7, 230, 265, 270, 7, 300, 265, 274, 7, 350, 265, 300, 7
         023743    007     230     265  
         023746    270     007     300  
         023751    265     274     007  
         023754    350     265     300  
         023757    007                  
    2109 023760    020     266     304  	.byte	20, 266, 304, 7, 70, 266, 310, 7, 140, 266, 314, 7, 210, 266, 320, 7
         023763    007     070     266  
         023766    310     007     140  
         023771    266     314     007  
         023774    210     266     320  
         023777    007                  
    2110 024000    260     266     324  	.byte	260, 266, 324, 7, 330, 266, 330, 7, 0, 267, 334, 7, 50, 267, 340, 7
         024003    007     330     266  
         024006    330     007     000  
         024011    267     334     007  
         024014    050     267     340  
         024017    007                  
    2111 024020    120     267     344  	.byte	120, 267, 344, 7, 170, 267, 350, 7, 240, 267, 354, 7, 310, 267, 360, 7
         024023    007     170     267  
         024026    350     007     240  
         024031    267     354     007  
         024034    310     267     360  
         024037    007                  
    2112 024040    360     267     364  	.byte	360, 267, 364, 7, 30, 270, 370, 7, 100, 270, 374, 7, 150, 270, 0, 10
         024043    007     030     270  
         024046    370     007     100  
         024051    270     374     007  
         024054    150     270     000  
         024057    010                  
    2113 024060    220     270     004  	.byte	220, 270, 4, 10, 270, 270, 10, 10, 340, 270, 14, 10, 10, 271, 20, 10
         024063    010     270     270  
         024066    010     010     340  
         024071    270     014     010  
         024074    010     271     020  
         024077    010                  
    2114 024100    060     271     024  	.byte	60, 271, 24, 10, 130, 271, 30, 10, 200, 271, 34, 10, 250, 271, 40, 10
         024103    010     130     271  
         024106    030     010     200  
         024111    271     034     010  
         024114    250     271     040  
         024117    010                  
    2115 024120    320     271     044  	.byte	320, 271, 44, 10, 370, 271, 50, 10, 40, 272, 54, 10, 110, 272, 60, 10
         024123    010     370     271  
         024126    050     010     040  
         024131    272     054     010  
         024134    110     272     060  
         024137    010                  
    2116 024140    160     272     064  	.byte	160, 272, 64, 10, 230, 272, 70, 10, 300, 272, 74, 10, 350, 272, 100, 10
         024143    010     230     272  
         024146    070     010     300  
         024151    272     074     010  
         024154    350     272     100  
         024157    010                  
    2117 024160    020     273     104  	.byte	20, 273, 104, 10, 70, 273, 110, 10, 140, 273, 114, 10, 210, 273, 120, 10
         024163    010     070     273  
         024166    110     010     140  
         024171    273     114     010  
         024174    210     273     120  
         024177    010                  
    2118 024200    260     273     124  	.byte	260, 273, 124, 10, 330, 273, 130, 10, 0, 274, 130, 10, 306, 25, 0, 2
         024203    010     330     273  
         024206    130     010     000  
         024211    274     130     010  
         024214    306     025     000  
         024217    002                  
    2119 024220    337     025     361  	.byte	337, 25, 361, 0, 54, 376, 337, 11, 66, 11, 300, 25, 0, 200, 303, 25
         024223    000     054     376  
         024226    337     011     066  
         024231    011     300     025  
         024234    000     200     303  
         024237    025                  
    2120 024240    000     077     020  	.byte	0, 77, 20, 12, 302, 176, 337, 25, 377, 157, 10, 376, 337, 45, 377, 377
         024243    012     302     176  
         024246    337     025     377  
         024251    157     010     376  
         024254    337     045     377  
         024257    377                  
    2121 024260    014     376     371  	.byte	14, 376, 371, 2, 37, 12, 26, 376, 337, 105, 107, 0, 66, 376, 337, 105
         024263    002     037     012  
         024266    026     376     337  
         024271    105     107     000  
         024274    066     376     337  
         024277    105                  
    2122 024300    000     002     054  	.byte	0, 2, 54, 376, 337, 125, 0, 1, 54, 376, 337, 11, 46, 11, 337, 105
         024303    376     337     125  
         024306    000     001     054  
         024311    376     337     011  
         024314    046     011     337  
         024317    105                  
    2123 024320    200     000     316  	.byte	200, 0, 316, 377, 337, 25, 20, 14, 300, 0, 337, 125, 100, 0, 300, 377
         024323    377     337     025  
         024326    020     014     300  
         024331    000     337     125  
         024334    100     000     300  
         024337    377                  
    2124 024340    337     025     377  	.byte	337, 25, 377, 157, 10, 376, 37, 12, 14, 376, 27, 215, 0, 0, 337, 11
         024343    157     010     376  
         024346    037     012     014  
         024351    376     027     215  
         024354    000     000     337  
         024357    011                  
    2125 024360    304     010     375  	.byte	304, 10, 375, 1, 337, 25, 377, 157, 10, 376, 337, 13, 14, 376, 3, 2
         024363    001     337     025  
         024366    377     157     010  
         024371    376     337     013  
         024374    014     376     003  
         024377    002                  
    2126 024400    237     012     142  	.byte	237, 12, 142, 11, 207, 0, 304, 25, 10, 376, 305, 25, 14, 376, 314, 25
         024403    011     207     000  
         024406    304     025     010  
         024411    376     305     025  
         024414    014     376     314  
         024417    025                  
    2127 024420    371     157     100  	.byte	371, 157, 100, 23, 214, 12, 101, 23, 214, 12, 102, 23, 214, 12, 103, 23
         024423    023     214     012  
         024426    101     023     214  
         024431    012     102     023  
         024434    214     012     103  
         024437    023                  
    2128 024440    214     012     214  	.byte	214, 12, 214, 12, 214, 12, 105, 23, 305, 14, 375, 11, 12, 11, 337, 25
         024443    012     214     012  
         024446    105     023     305  
         024451    014     375     011  
         024454    012     011     337  
         024457    025                  
    2129 024460    377     157     010  	.byte	377, 157, 10, 376, 37, 12, 14, 376, 207, 0, 176, 15, 104, 11, 122, 11
         024463    376     037     012  
         024466    014     376     207  
         024471    000     176     015  
         024474    104     011     122  
         024477    011                  
    2130 024500    144     011     166  	.byte	144, 11, 166, 11, 6, 12, 212, 12, 336, 12, 50, 13, 176, 13, 232, 13
         024503    011     006     012  
         024506    212     012     336  
         024511    012     050     013  
         024514    176     013     232  
         024517    013                  
    2131 024520    227     012     000  	.byte	227, 12, 0, 0, 2, 0, 37, 12, 310, 377, 337, 13, 314, 377, 337, 13
         024523    000     002     000  
         024526    037     012     310  
         024531    377     337     013  
         024534    314     377     337  
         024537    013                  
    2132 024540    310     377     371  	.byte	310, 377, 371, 2, 207, 0, 300, 25, 152, 24, 302, 25, 313, 65, 20, 12
         024543    002     207     000  
         024546    300     025     152  
         024551    024     302     025  
         024554    313     065     020  
         024557    012                  
    2133 024560    202     176     207  	.byte	202, 176, 207, 0, 305, 25, 0, 200, 303, 25, 0, 36, 25, 12, 302, 176
         024563    000     305     025  
         024566    000     200     303  
         024571    025     000     036  
         024574    025     012     302  
         024577    176                  
    2134 024600    207     000     305  	.byte	207, 0, 305, 25, 10, 2, 25, 20, 125, 20, 125, 45, 225, 20, 315, 20
         024603    025     010     002  
         024606    025     020     125  
         024611    020     125     045  
         024614    225     020     315  
         024617    020                  
    2135 024620    207     000     000  	.byte	207, 0, 0, 0, 337, 25, 366, 157, 10, 376, 337, 27, 142, 11, 14, 376
         024623    000     337     025  
         024626    366     157     010  
         024631    376     337     027  
         024634    142     011     014  
         024637    376                  
    2136 024640    037     012     142  	.byte	37, 12, 142, 11, 207, 0, 337, 25, 365, 157, 10, 376, 337, 27, 42, 11
         024643    011     207     000  
         024646    337     025     365  
         024651    157     010     376  
         024654    337     027     042  
         024657    011                  
    2137 024660    014     376     207  	.byte	14, 376, 207, 0, 304, 25, 10, 376, 305, 25, 12, 376, 207, 0, 304, 25
         024663    000     304     025  
         024666    010     376     305  
         024671    025     012     376  
         024674    207     000     304  
         024677    025                  
    2138 024700    010     376     305  	.byte	10, 376, 305, 25, 24, 376, 114, 20, 337, 25, 7, 0, 16, 376, 37, 12
         024703    025     024     376  
         024706    114     020     337  
         024711    025     007     000  
         024714    016     376     037  
         024717    012                  
    2139 024720    020     376     037  	.byte	20, 376, 37, 12, 22, 376, 302, 25, 50, 0, 1, 224, 53, 3, 127, 40
         024723    012     022     376  
         024726    302     025     050  
         024731    000     001     224  
         024734    053     003     127  
         024737    040                  
    2140 024740    007     000     003  	.byte	7, 0, 3, 202, 137, 20, 16, 376, 370, 1, 301, 345, 60, 0, 2, 4
         024743    202     137     020  
         024746    016     376     370  
         024751    001     301     345  
         024754    060     000     002  
         024757    004                  
    2141 024760    301     025     020  	.byte	301, 25, 20, 0, 301, 14, 301, 14, 301, 14, 301, 145, 22, 23, 103, 224
         024763    000     301     014  
         024766    301     014     301  
         024771    014     301     145  
         024774    022     023     103  
         024777    224                  
    2142 025000    315     020     214  	.byte	315, 20, 214, 140, 103, 224, 315, 20, 214, 140, 103, 224, 315, 20, 214, 140
         025003    140     103     224  
         025006    315     020     214  
         025011    140     103     224  
         025014    315     020     214  
         025017    140                  
    2143 025020    103     224     315  	.byte	103, 224, 315, 20, 214, 140, 103, 224, 315, 20, 214, 140, 103, 224, 315, 20
         025023    020     214     140  
         025026    103     224     315  
         025031    020     214     140  
         025034    103     224     315  
         025037    020                  
    2144 025040    214     140     103  	.byte	214, 140, 103, 224, 315, 20, 214, 140, 103, 224, 315, 20, 214, 140, 314, 345
         025043    224     315     020  
         025046    214     140     103  
         025051    224     315     020  
         025054    214     140     314  
         025057    345                  
    2145 025060    077     001     323  	.byte	77, 1, 323, 1, 207, 0, 301, 25, 330, 2, 303, 25, 100, 0, 21, 20
         025063    001     207     000  
         025066    301     025     330  
         025071    002     303     025  
         025074    100     000     021  
         025077    020                  
    2146 025100    201     012     201  	.byte	201, 12, 201, 12, 300, 145, 50, 0, 21, 20, 201, 12, 201, 12, 300, 145
         025103    012     300     145  
         025106    050     000     021  
         025111    020     201     012  
         025114    201     012     300  
         025117    145                  
    2147 025120    050     000     021  	.byte	50, 0, 21, 20, 201, 12, 201, 12, 300, 145, 50, 0, 21, 20, 201, 12
         025123    020     201     012  
         025126    201     012     300  
         025131    145     050     000  
         025134    021     020     201  
         025137    012                  
    2148 025140    201     012     300  	.byte	201, 12, 300, 145, 50, 0, 325, 176, 321, 25, 0, 274, 201, 12, 201, 12
         025143    145     050     000  
         025146    325     176     321  
         025151    025     000     274  
         025154    201     012     201  
         025157    012                  
    2149 025160    321     025     000  	.byte	321, 25, 0, 274, 201, 12, 201, 12, 321, 25, 0, 274, 201, 12, 201, 12
         025163    274     201     012  
         025166    201     012     321  
         025171    025     000     274  
         025174    201     012     201  
         025177    012                  
    2150 025200    321     025     000  	.byte	321, 25, 0, 274, 201, 12, 201, 12, 321, 25, 0, 274, 201, 12, 201, 12
         025203    274     201     012  
         025206    201     012     321  
         025211    025     000     274  
         025214    201     012     201  
         025217    012                  
    2151 025220    321     025     000  	.byte	321, 25, 0, 274, 201, 12, 201, 12, 321, 25, 0, 274, 201, 12, 201, 12
         025223    274     201     012  
         025226    201     012     321  
         025231    025     000     274  
         025234    201     012     201  
         025237    012                  
    2152 025240    321     025     000  	.byte	321, 25, 0, 274, 201, 12, 201, 12, 321, 25, 0, 274, 201, 12, 201, 12
         025243    274     201     012  
         025246    201     012     321  
         025251    025     000     274  
         025254    201     012     201  
         025257    012                  
    2153 025260    321     025     000  	.byte	321, 25, 0, 274, 201, 12, 201, 12, 207, 0, 337, 11, 204, 11, 14, 20
         025263    274     201     012  
         025266    201     012     207  
         025271    000     337     011  
         025274    204     011     014  
         025277    020                  
    2154 025300    127     164     004  	.byte	127, 164, 4, 0, 301, 145, 322, 17, 302, 25, 50, 0, 115, 224, 214, 140
         025303    000     301     145  
         025306    322     017     302  
         025311    025     050     000  
         025314    115     224     214  
         025317    140                  
    2155 025320    115     224     214  	.byte	115, 224, 214, 140, 115, 224, 214, 140, 115, 224, 214, 140, 115, 224, 214, 140
         025323    140     115     224  
         025326    214     140     115  
         025331    224     214     140  
         025334    115     224     214  
         025337    140                  
    2156 025340    115     224     214  	.byte	115, 224, 214, 140, 115, 224, 214, 140, 115, 224, 214, 140, 115, 224, 214, 140
         025343    140     115     224  
         025346    214     140     115  
         025351    224     214     140  
         025354    115     224     214  
         025357    140                  
    2157 025360    115     224     214  	.byte	115, 224, 214, 140, 115, 224, 214, 140, 115, 224, 214, 140, 115, 224, 214, 140
         025363    140     115     224  
         025366    214     140     115  
         025371    224     214     140  
         025374    115     224     214  
         025377    140                  
    2158 025400    115     224     214  	.byte	115, 224, 214, 140, 115, 224, 214, 140, 115, 224, 214, 140, 207, 0, 300, 27
         025403    140     115     224  
         025406    214     140     115  
         025411    224     214     140  
         025414    207     000     300  
         025417    027                  
    2159 025420    010     002     337  	.byte	10, 2, 337, 125, 7, 0, 10, 2, 337, 25, 370, 157, 10, 376, 37, 12
         025423    125     007     000  
         025426    010     002     337  
         025431    025     370     157  
         025434    010     376     037  
         025437    012                  
    2160 025440    014     376     337  	.byte	14, 376, 337, 25, 370, 157, 10, 376, 327, 47, 14, 376, 3, 0, 371, 207
         025443    025     370     157  
         025446    010     376     327  
         025451    047     014     376  
         025454    003     000     371  
         025457    207                  
    2161 025460    037     020     010  	.byte	37, 20, 10, 2, 207, 0, 3, 103, 101, 126, 105, 72, 7, 130, 40, 40
         025463    002     207     000  
         025466    003     103     101  
         025471    126     105     072  
         025474    007     130     040  
         025477    040                  
    2162 025500    040     040     040  	.byte	40, 40, 40, 40, 40, 40, 40, 40, 40, 40, 0, 3, 60, 60, 60, 0
         025503    040     040     040  
         025506    040     040     040  
         025511    040     000     003  
         025514    060     060     060  
         025517    000                  
    2163 025520    007     060     060  	.byte	7, 60, 60, 60, 0, 0, 1, 0, 146, 20, 300, 145, 101, 0, 37, 220
         025523    060     000     000  
         025526    001     000     146  
         025531    020     300     145  
         025534    101     000     037  
         025537    220                  
    2164 025540    015     013     301  	.byte	15, 13, 301, 25, 61, 202, 300, 25, 6, 13, 337, 11, 216, 11, 200, 25
         025543    025     061     202  
         025546    300     025     006  
         025551    013     337     011  
         025554    216     011     200  
         025557    025                  
    2165 025560    305     025     034  	.byte	305, 25, 34, 13, 337, 11, 132, 13, 237, 20, 46, 13, 301, 25, 100, 202
         025563    013     337     011  
         025566    132     013     237  
         025571    020     046     013  
         025574    301     025     100  
         025577    202                  
    2166 025600    300     025     033  	.byte	300, 25, 33, 13, 337, 11, 216, 11, 207, 0, 325, 225, 40, 0, 325, 225
         025603    013     337     011  
         025606    216     011     207  
         025611    000     325     225  
         025614    040     000     325  
         025617    225                  
    2167 025620    040     000     325  	.byte	40, 0, 325, 225, 40, 0, 2, 12, 1, 20, 0, 12, 202, 12, 27, 162
         025623    225     040     000  
         025626    002     012     001  
         025631    020     000     012  
         025634    202     012     027  
         025637    162                  
    2168 025640    012     000     301  	.byte	12, 0, 301, 145, 60, 0, 145, 220, 300, 13, 366, 2, 207, 0, 305, 25
         025643    145     060     000  
         025646    145     220     300  
         025651    013     366     002  
         025654    207     000     305  
         025657    025                  
    2169 025660    041     013     337  	.byte	41, 13, 337, 11, 132, 13, 301, 25, 77, 202, 301, 347, 46, 13, 300, 25
         025663    011     132     013  
         025666    301     025     077  
         025671    202     301     347  
         025674    046     013     300  
         025677    025                  
    2170 025700    040     013     337  	.byte	40, 13, 337, 11, 216, 11, 207, 0, 0, 0, 27, 215, 200, 0, 337, 11
         025703    011     216     011  
         025706    207     000     000  
         025711    000     027     215  
         025714    200     000     337  
         025717    011                  
    2171 025720    046     011     300  	.byte	46, 11, 300, 14, 0, 34, 204, 15, 20, 3, 1, 24, 16, 3, 37, 20
         025723    014     000     034  
         025726    204     015     020  
         025731    003     001     024  
         025734    016     003     037  
         025737    020                  
    2172 025740    230     013     137  	.byte	230, 13, 137, 20, 312, 377, 337, 13, 314, 377, 337, 13, 314, 377, 337, 25
         025743    020     312     377  
         025746    337     013     314  
         025751    377     337     013  
         025754    314     377     337  
         025757    025                  
    2173 025760    320     013     304  	.byte	320, 13, 304, 0, 337, 25, 101, 0, 310, 377, 27, 215, 0, 0, 207, 0
         025763    000     337     025  
         025766    101     000     310  
         025771    377     027     215  
         025774    000     000     207  
         025777    000                  
    2174 026000    337     105     200  	.byte	337, 105, 200, 0, 316, 377, 337, 25, 336, 13, 304, 0, 6, 1, 337, 125
         026003    000     316     377  
         026006    337     025     336  
         026011    013     304     000  
         026014    006     001     337  
         026017    125                  
    2175 026020    200     000     316  	.byte	200, 0, 316, 377, 337, 25, 320, 13, 304, 0, 337, 37, 252, 377, 312, 377
         026023    377     337     025  
         026026    320     013     304  
         026031    000     337     037  
         026034    252     377     312  
         026037    377                  
    2176 026040    010     003     337  	.byte	10, 3, 337, 145, 2, 0, 230, 13, 337, 13, 314, 377, 337, 13, 314, 377
         026043    145     002     000  
         026046    230     013     337  
         026051    013     314     377  
         026054    337     013     314  
         026057    377                  
    2177 026060    002     000     037  	.byte	2, 0, 37, 12, 310, 377, 337, 13, 314, 377, 337, 13, 314, 377, 2, 0
         026063    012     310     377  
         026066    337     013     314  
         026071    377     337     013  
         026074    314     377     002  
         026077    000                  
    2178 026100    046     020     300  	.byte	46, 20, 300, 27, 302, 377, 146, 20, 246, 20, 346, 20, 46, 21, 146, 21
         026103    027     302     377  
         026106    146     020     246  
         026111    020     346     020  
         026114    046     021     146  
         026117    021                  
    2179 026120    304     025     010  	.byte	304, 25, 10, 376, 305, 25, 14, 376, 46, 23, 314, 25, 364, 157, 15, 20
         026123    376     305     025  
         026126    014     376     046  
         026131    023     314     025  
         026134    364     157     015  
         026137    020                  
    2180 026140    300     065     200  	.byte	300, 65, 200, 0, 44, 2, 301, 25, 162, 15, 302, 25, 163, 15, 221, 224
         026143    000     044     002  
         026146    301     025     162  
         026151    015     302     025  
         026154    163     015     221  
         026157    224                  
    2181 026160    221     224     221  	.byte	221, 224, 221, 224, 221, 224, 221, 224, 21, 220, 303, 25, 6, 0, 241, 244
         026163    224     221     224  
         026166    221     224     021  
         026171    220     303     025  
         026174    006     000     241  
         026177    244                  
    2182 026200    004     002     303  	.byte	4, 2, 303, 176, 314, 25, 362, 157, 215, 12, 314, 25, 363, 157, 215, 12
         026203    176     314     025  
         026206    362     157     215  
         026211    012     314     025  
         026214    363     157     215  
         026217    012                  
    2183 026220    301     025     362  	.byte	301, 25, 362, 14, 311, 13, 27, 3, 21, 40, 3, 3, 301, 145, 4, 0
         026223    014     311     013  
         026226    027     003     021  
         026231    040     003     003  
         026234    301     145     004  
         026237    000                  
    2184 026240    371     001     114  	.byte	371, 1, 114, 24, 215, 12, 114, 24, 16, 3, 15, 12, 14, 1, 300, 105
         026243    024     215     012  
         026246    114     024     016  
         026251    003     015     012  
         026254    014     001     300  
         026257    105                  
    2185 026260    360     377     300  	.byte	360, 377, 300, 14, 1, 34, 250, 14, 0, 34, 246, 14, 1, 40, 3, 206
         026263    014     001     034  
         026266    250     014     000  
         026271    034     246     014  
         026274    001     040     003  
         026277    206                  
    2186 026300    014     024     015  	.byte	14, 24, 15, 12, 373, 1, 214, 25, 205, 25, 204, 25, 203, 25, 202, 25
         026303    012     373     001  
         026306    214     025     205  
         026311    025     204     025  
         026314    203     025     202  
         026317    025                  
    2187 026320    201     025     200  	.byte	201, 25, 200, 25, 2, 0, 310, 14, 310, 14, 310, 14, 310, 14, 310, 14
         026323    025     002     000  
         026326    310     014     310  
         026331    014     310     014  
         026334    310     014     310  
         026337    014                  
    2188 026340    312     014     314  	.byte	312, 14, 314, 14, 314, 14, 314, 14, 320, 14, 324, 14, 332, 14, 340, 14
         026343    014     314     014  
         026346    314     014     320  
         026351    014     324     014  
         026354    332     014     340  
         026357    014                  
    2189 026360    350     014     354  	.byte	350, 14, 354, 14, 360, 14, 362, 14, 351, 157, 353, 157, 343, 157, 350, 157
         026363    014     360     014  
         026366    362     014     351  
         026371    157     353     157  
         026374    343     157     350  
         026377    157                  
    2190 026400    342     157     347  	.byte	342, 157, 347, 157, 341, 157, 352, 157, 346, 157, 340, 157, 355, 157, 356, 157
         026403    157     341     157  
         026406    352     157     346  
         026411    157     340     157  
         026414    355     157     356  
         026417    157                  
    2191 026420    337     157     360  	.byte	337, 157, 360, 157, 361, 157, 345, 157, 336, 157, 344, 157, 335, 157, 357, 157
         026423    157     361     157  
         026426    345     157     336  
         026431    157     344     157  
         026434    335     157     357  
         026437    157                  
    2192 026440    334     157     004  	.byte	334, 157, 4, 0, 351, 157, 0, 0, 152, 0, 352, 157, 0, 0, 30, 0
         026443    000     351     157  
         026446    000     000     152  
         026451    000     352     157  
         026454    000     000     030  
         026457    000                  
    2193 026460    343     157     000  	.byte	343, 157, 0, 0, 31, 0, 342, 157, 0, 0, 32, 0, 341, 157, 0, 0
         026463    000     031     000  
         026466    342     157     000  
         026471    000     032     000  
         026474    341     157     000  
         026477    000                  
    2194 026500    013     000     340  	.byte	13, 0, 340, 157, 0, 0, 34, 0, 337, 157, 0, 0, 35, 0, 336, 157
         026503    157     000     000  
         026506    034     000     337  
         026511    157     000     000  
         026514    035     000     336  
         026517    157                  
    2195 026520    000     000     016  	.byte	0, 0, 16, 0, 335, 157, 0, 0, 17, 0, 334, 157, 0, 0, 113, 0
         026523    000     335     157  
         026526    000     000     017  
         026531    000     334     157  
         026534    000     000     113  
         026537    000                  
    2196 026540    355     157     000  	.byte	355, 157, 0, 0, 134, 0, 360, 157, 361, 157, 154, 0, 361, 157, 360, 157
         026543    000     134     000  
         026546    360     157     361  
         026551    157     154     000  
         026554    361     157     360  
         026557    157                  
    2197 026560    116     000     357  	.byte	116, 0, 357, 157, 356, 157, 133, 0, 356, 157, 357, 157, 10, 0, 350, 157
         026563    157     356     157  
         026566    133     000     356  
         026571    157     357     157  
         026574    010     000     350  
         026577    157                  
    2198 026600    000     000     011  	.byte	0, 0, 11, 0, 347, 157, 0, 0, 12, 0, 346, 157, 0, 0, 14, 0
         026603    000     347     157  
         026606    000     000     012  
         026611    000     346     157  
         026614    000     000     014  
         026617    000                  
    2199 026620    345     157     000  	.byte	345, 157, 0, 0, 15, 0, 344, 157, 0, 0, 105, 0, 353, 157, 0, 0
         026623    000     015     000  
         026626    344     157     000  
         026631    000     105     000  
         026634    353     157     000  
         026637    000                  
    2200 026640    000     000     000  	.byte	0, 0, 0, 0, 0, 0, 0, 0, 154, 134, 154, 154, 134, 134, 27, 215
         026643    000     000     000  
         026646    000     000     154  
         026651    134     154     154  
         026654    134     134     027  
         026657    215                  
    2201 026660    200     000     377  	.byte	200, 0, 377, 1, 0, 0, 222, 15, 262, 16, 270, 16, 362, 16, 164, 17
         026663    001     000     000  
         026666    222     015     262  
         026671    016     270     016  
         026674    362     016     164  
         026677    017                  
    2202 026700    270     017     133  	.byte	270, 17, 133, 3, 372, 1, 377, 1, 373, 1, 367, 5, 376, 1, 374, 1
         026703    003     372     001  
         026706    377     001     373  
         026711    001     367     005  
         026714    376     001     374  
         026717    001                  
    2203 026720    375     001     375  	.byte	375, 1, 375, 1, 366, 5, 376, 1, 371, 3, 376, 1, 361, 7, 375, 3
         026723    001     366     005  
         026726    376     001     371  
         026731    003     376     001  
         026734    361     007     375  
         026737    003                  
    2204 026740    367     003     371  	.byte	367, 3, 371, 5, 322, 7, 357, 1, 353, 1, 265, 7, 356, 1, 330, 3
         026743    005     322     007  
         026746    357     001     353  
         026751    001     265     007  
         026754    356     001     330  
         026757    003                  
    2205 026760    357     001     330  	.byte	357, 1, 330, 3, 334, 3, 310, 3, 340, 1, 333, 1, 165, 7, 227, 5
         026763    003     334     003  
         026766    310     003     340  
         026771    001     333     001  
         026774    165     007     227  
         026777    005                  
    2206 027000    336     001     162  	.byte	336, 1, 162, 7, 127, 7, 244, 17, 266, 10, 42, 7, 361, 1, 234, 11
         027003    007     127     007  
         027006    244     017     266  
         027011    010     042     007  
         027014    361     001     234  
         027017    011                  
    2207 027020    314     005     352  	.byte	314, 5, 352, 1, 360, 1, 303, 5, 336, 3, 227, 3, 236, 3, 312, 1
         027023    001     360     001  
         027026    303     005     336  
         027031    003     227     003  
         027034    236     003     312  
         027037    001                  
    2208 027040    003     011     316  	.byte	3, 11, 316, 1, 231, 3, 317, 1, 314, 1, 316, 1, 231, 3, 332, 4
         027043    001     231     003  
         027046    317     001     314  
         027051    001     316     001  
         027054    231     003     332  
         027057    004                  
    2209 027060    235     001     073  	.byte	235, 1, 73, 3, 236, 1, 235, 1, 330, 4, 166, 6, 73, 3, 61, 10
         027063    003     236     001  
         027066    235     001     330  
         027071    004     166     006  
         027074    073     003     061  
         027077    010                  
    2210 027100    137     003     127  	.byte	137, 3, 127, 3, 261, 1, 127, 3, 13, 5, 254, 1, 257, 1, 254, 1
         027103    003     261     001  
         027106    127     003     013  
         027111    005     254     001  
         027114    257     001     254  
         027117    001                  
    2211 027120    256     001     255  	.byte	256, 1, 255, 1, 133, 3, 255, 1, 147, 5, 150, 5, 147, 5, 234, 3
         027123    001     133     003  
         027126    255     001     147  
         027131    005     150     005  
         027134    147     005     234  
         027137    003                  
    2212 027140    315     001     232  	.byte	315, 1, 232, 3, 316, 1, 314, 1, 316, 1, 315, 1, 216, 1, 247, 4
         027143    003     316     001  
         027146    314     001     316  
         027151    001     315     001  
         027154    216     001     247  
         027157    004                  
    2213 027160    252     004     215  	.byte	252, 4, 215, 1, 34, 3, 33, 3, 250, 4, 217, 1, 247, 4, 220, 1
         027163    001     034     003  
         027166    033     003     250  
         027171    004     217     001  
         027174    247     004     220  
         027177    001                  
    2214 027200    327     014     244  	.byte	327, 14, 244, 1, 157, 6, 245, 1, 321, 4, 102, 3, 217, 6, 264, 1
         027203    001     157     006  
         027206    245     001     321  
         027211    004     102     003  
         027214    217     006     264  
         027217    001                  
    2215 027220    125     003     015  	.byte	125, 3, 15, 5, 127, 3, 261, 1, 252, 1, 261, 1, 252, 1, 260, 1
         027223    005     127     003  
         027226    261     001     252  
         027231    001     261     001  
         027234    252     001     260  
         027237    001                  
    2216 027240    253     001     135  	.byte	253, 1, 135, 3, 22, 7, 236, 3, 312, 1, 66, 7, 316, 1, 315, 1
         027243    003     022     007  
         027246    236     003     312  
         027251    001     066     007  
         027254    316     001     315  
         027257    001                  
    2217 027260    232     003     232  	.byte	232, 3, 232, 3, 316, 1, 343, 6, 36, 3, 213, 1, 253, 4, 215, 1
         027263    003     316     001  
         027266    343     006     036  
         027271    003     213     001  
         027274    253     004     215  
         027277    001                  
    2218 027300    216     001     215  	.byte	216, 1, 215, 1, 66, 6, 217, 1, 214, 1, 217, 1, 214, 1, 54, 3
         027303    001     066     006  
         027306    217     001     214  
         027311    001     217     001  
         027314    214     001     054  
         027317    003                  
    2219 027320    235     001     236  	.byte	235, 1, 236, 1, 72, 3, 261, 11, 237, 1, 71, 3, 75, 3, 234, 1
         027323    001     072     003  
         027326    261     011     237  
         027331    001     071     003  
         027334    075     003     234  
         027337    001                  
    2220 027340    000     000     074  	.byte	0, 0, 74, 0, 74, 0, 0, 0, 121, 0, 101, 0, 127, 0, 101, 0
         027343    000     074     000  
         027346    000     000     121  
         027351    000     101     000  
         027354    127     000     101  
         027357    000                  
    2221 027360    222     000     073  	.byte	222, 0, 73, 0, 102, 0, 75, 0, 146, 0, 75, 0, 130, 0, 102, 0
         027363    000     102     000  
         027366    075     000     146  
         027371    000     075     000  
         027374    130     000     102  
         027377    000                  
    2222 027400    126     000     103  	.byte	126, 0, 103, 0, 144, 0, 50, 0, 350, 1, 60, 11, 230, 5, 110, 4
         027403    000     144     000  
         027406    050     000     350  
         027411    001     060     011  
         027414    230     005     110  
         027417    004                  
    2223 027420    040     002     010  	.byte	40, 2, 10, 2, 20, 2, 360, 1, 210, 4, 10, 2, 30, 2, 153, 1
         027423    002     020     002  
         027426    360     001     210  
         027431    004     010     002  
         027434    030     002     153  
         027437    001                  
    2224 027440    000     000     126  	.byte	0, 0, 126, 0, 55, 0, 104, 0, 71, 0, 103, 0, 72, 0, 103, 0
         027443    000     055     000  
         027446    104     000     071  
         027451    000     103     000  
         027454    072     000     103  
         027457    000                  
    2225 027460    071     000     104  	.byte	71, 0, 104, 0, 71, 0, 103, 0, 72, 0, 103, 0, 72, 0, 103, 0
         027463    000     071     000  
         027466    103     000     072  
         027471    000     103     000  
         027474    072     000     103  
         027477    000                  
    2226 027500    071     000     103  	.byte	71, 0, 103, 0, 72, 0, 103, 0, 72, 0, 103, 0, 71, 0, 104, 0
         027503    000     072     000  
         027506    103     000     072  
         027511    000     103     000  
         027514    071     000     104  
         027517    000                  
    2227 027520    071     000     103  	.byte	71, 0, 103, 0, 72, 0, 103, 0, 72, 0, 103, 0, 71, 0, 104, 0
         027523    000     072     000  
         027526    103     000     072  
         027531    000     103     000  
         027534    071     000     104  
         027537    000                  
    2228 027540    071     000     103  	.byte	71, 0, 103, 0, 72, 0, 103, 0, 72, 0, 103, 0, 71, 0, 103, 0
         027543    000     072     000  
         027546    103     000     072  
         027551    000     103     000  
         027554    071     000     103  
         027557    000                  
    2229 027560    072     000     103  	.byte	72, 0, 103, 0, 72, 0, 103, 0, 71, 0, 104, 0, 71, 0, 103, 0
         027563    000     072     000  
         027566    103     000     071  
         027571    000     104     000  
         027574    071     000     103  
         027577    000                  
    2230 027600    072     000     103  	.byte	72, 0, 103, 0, 72, 0, 103, 0, 71, 0, 103, 0, 72, 0, 103, 0
         027603    000     072     000  
         027606    103     000     071  
         027611    000     103     000  
         027614    072     000     103  
         027617    000                  
    2231 027620    072     000     103  	.byte	72, 0, 103, 0, 71, 0, 104, 0, 71, 0, 103, 0, 72, 0, 103, 0
         027623    000     071     000  
         027626    104     000     071  
         027631    000     103     000  
         027634    072     000     103  
         027637    000                  
    2232 027640    112     000     000  	.byte	112, 0, 0, 0, 16, 0, 124, 0, 71, 0, 131, 0, 77, 0, 137, 0
         027643    000     016     000  
         027646    124     000     071  
         027651    000     131     000  
         027654    077     000     137  
         027657    000                  
    2233 027660    112     000     141  	.byte	112, 0, 141, 0, 125, 0, 151, 0, 132, 0, 160, 0, 145, 0, 164, 0
         027663    000     125     000  
         027666    151     000     132  
         027671    000     160     000  
         027674    145     000     164  
         027677    000                  
    2234 027700    155     000     172  	.byte	155, 0, 172, 0, 166, 0, 200, 0, 175, 0, 210, 0, 206, 0, 215, 0
         027703    000     166     000  
         027706    200     000     175  
         027711    000     210     000  
         027714    206     000     215  
         027717    000                  
    2235 027720    216     000     224  	.byte	216, 0, 224, 0, 225, 0, 234, 0, 235, 0, 242, 0, 244, 0, 251, 0
         027723    000     225     000  
         027726    234     000     235  
         027731    000     242     000  
         027734    244     000     251  
         027737    000                  
    2236 027740    254     000     260  	.byte	254, 0, 260, 0, 140, 0, 0, 0, 302, 0, 117, 0, 45, 0, 32, 0
         027743    000     140     000  
         027746    000     000     302  
         027751    000     117     000  
         027754    045     000     032  
         027757    000                  
    2237 027760    113     000     031  	.byte	113, 0, 31, 0, 322, 0, 51, 0, 45, 0, 114, 0, 32, 0, 64, 0
         027763    000     322     000  
         027766    051     000     045  
         027771    000     114     000  
         027774    032     000     064  
         027777    000                  
    2238 030000    000     000     000  	.byte	0, 0, 0, 0, 0, 0, 0, 0, 0, 0, 0, 0, 0, 0, 0, 0
         030003    000     000     000  
         030006    000     000     000  
         030011    000     000     000  
         030014    000     000     000  
         030017    000                  
    2239 030020    000     000     377  	.byte	0, 0, 377, 377, 377, 231, 273, 231, 377, 377, 377, 377, 231, 273, 231, 377
         030023    377     377     231  
         030026    273     231     377  
         030031    377     377     377  
         030034    231     273     231  
         030037    377                  
    2240 030040    377     377     377  	.byte	377, 377, 377, 377, 377, 231, 273, 231, 377, 377, 377, 377, 231, 273, 231, 377
         030043    377     377     231  
         030046    273     231     377  
         030051    377     377     377  
         030054    231     273     231  
         030057    377                  
    2241 030060    377     377     377  	.byte	377, 377, 377, 377, 377, 231, 273, 273, 377, 377, 377, 377, 231, 273, 273, 377
         030063    377     377     231  
         030066    273     273     377  
         030071    377     377     377  
         030074    231     273     273  
         030077    377                  
    2242 030100    377     377     244  	.byte	377, 377, 244, 223, 156, 273, 335, 166, 337, 175, 376, 173, 267, 356, 125, 263
         030103    223     156     273  
         030106    335     166     337  
         030111    175     376     173  
         030114    267     356     125  
         030117    263                  
    2243 030120    057     122     244  	.byte	57, 122, 244, 223, 156, 273, 335, 166, 337, 175, 376, 173, 267, 356, 125, 263
         030123    223     156     273  
         030126    335     166     337  
         030131    175     376     173  
         030134    267     356     125  
         030137    263                  
    2244 030140    057     122     000  	.byte	57, 122, 0, 0, 104, 0, 0, 42, 31, 100, 20, 102, 22, 102, 0, 0
         030143    000     104     000  
         030146    000     042     031  
         030151    100     020     102  
         030154    022     102     000  
         030157    000                  
    2245 030160    010     000     000  	.byte	10, 0, 0, 42, 356, 0, 0, 210, 273, 0, 0, 42, 356, 0, 0, 210
         030163    042     356     000  
         030166    000     210     273  
         030171    000     000     042  
         030174    356     000     000  
         030177    210                  
    2246 030200    273     000     356  	.byte	273, 0, 356, 356, 356, 0, 273, 273, 273, 0, 356, 356, 356, 0, 273, 273
         030203    356     356     000  
         030206    273     273     273  
         030211    000     356     356  
         030214    356     000     273  
         030217    273                  
    2247 030220    273     000     356  	.byte	273, 0, 356, 356, 356, 0, 273, 273, 273, 0, 356, 356, 356, 0, 273, 273
         030223    356     356     000  
         030226    273     273     273  
         030231    000     356     356  
         030234    356     000     273  
         030237    273                  
    2248 030240    273     000     034  	.byte	273, 0, 34, 52, 165, 342, 340, 200, 300, 200, 0, 0, 0, 0, 0, 0
         030243    052     165     342  
         030246    340     200     300  
         030251    200     000     000  
         030254    000     000     000  
         030257    000                  
    2249 030260    000     000     034  	.byte	0, 0, 34, 56, 175, 353, 367, 335, 363, 337, 175, 133, 375, 373, 167, 176
         030263    056     175     353  
         030266    367     335     363  
         030271    337     175     133  
         030274    375     373     167  
         030277    176                  
    2250 030300    044     030     034  	.byte	44, 30, 34, 52, 165, 342, 340, 200, 300, 200, 0, 0, 0, 0, 0, 0
         030303    052     165     342  
         030306    340     200     300  
         030311    200     000     000  
         030314    000     000     000  
         030317    000                  
    2251 030320    000     000     000  	.byte	0, 0, 0, 0, 0, 0, 40, 4, 22, 110, 20, 4, 42, 30, 0, 0
         030323    000     000     000  
         030326    040     004     022  
         030331    110     020     004  
         030334    042     030     000  
         030337    000                  
    2252 030340    000     000     000  	.byte	0, 0, 0, 0, 0, 40, 50, 106, 162, 112, 60, 26, 52, 134, 24, 0
         030343    000     000     040  
         030346    050     106     162  
         030351    112     060     026  
         030354    052     134     024  
         030357    000                  
    2253 030360    000     000     000  	.byte	0, 0, 0, 0, 122, 50, 152, 106, 162, 113, 60, 127, 52, 134, 125, 30
         030363    000     122     050  
         030366    152     106     162  
         030371    113     060     127  
         030374    052     134     125  
         030377    030                  
    2254 030400    002     000     030  	.byte	2, 0, 30, 30, 44, 44, 126, 152, 377, 377, 377, 377, 152, 126, 54, 44
         030403    030     044     044  
         030406    126     152     377  
         030411    377     377     377  
         030414    152     126     054  
         030417    044                  
    2255 030420    030     030     030  	.byte	30, 30, 30, 30, 54, 74, 176, 176, 377, 253, 325, 253, 102, 102, 44, 64
         030423    030     054     074  
         030426    176     176     377  
         030431    253     325     253  
         030434    102     102     044  
         030437    064                  
    2256 030440    030     030     030  	.byte	30, 30, 30, 30, 74, 74, 152, 126, 253, 201, 201, 201, 126, 152, 74, 74
         030443    030     074     074  
         030446    152     126     253  
         030451    201     201     201  
         030454    126     152     074  
         030457    074                  
    2257 030460    030     030     030  	.byte	30, 30, 30, 30, 64, 54, 102, 102, 201, 325, 253, 377, 176, 176, 74, 54
         030463    030     064     054  
         030466    102     102     201  
         030471    325     253     377  
         030474    176     176     074  
         030477    054                  
    2258 030500    030     030     377  	.byte	30, 30, 377, 42, 356, 0, 0, 210, 273, 0, 0, 42, 356, 0, 0, 210
         030503    042     356     000  
         030506    000     210     273  
         030511    000     000     042  
         030514    356     000     000  
         030517    210                  
    2259 030520    273     377     377  	.byte	273, 377, 377, 104, 335, 0, 0, 21, 167, 0, 0, 104, 335, 0, 0, 21
         030523    104     335     000  
         030526    000     021     167  
         030531    000     000     104  
         030534    335     000     000  
         030537    021                  
    2260 030540    167     377     377  	.byte	167, 377, 377, 210, 273, 0, 0, 42, 356, 0, 0, 210, 273, 0, 0, 42
         030543    210     273     000  
         030546    000     042     356  
         030551    000     000     210  
         030554    273     000     000  
         030557    042                  
    2261 030560    356     377     377  	.byte	356, 377, 377, 21, 167, 0, 0, 104, 335, 0, 0, 21, 167, 0, 0, 104
         030563    021     167     000  
         030566    000     104     335  
         030571    000     000     021  
         030574    167     000     000  
         030577    104                  
    2262 030600    335     377     377  	.byte	335, 377, 377, 377, 201, 201, 275, 275, 275, 275, 275, 275, 275, 275, 201, 201
         030603    377     201     201  
         030606    275     275     275  
         030611    275     275     275  
         030614    275     275     201  
         030617    201                  
    2263 030620    377     377     000  	.byte	377, 377, 0, 0, 176, 176, 176, 176, 176, 176, 176, 176, 176, 176, 176, 176
         030623    000     176     176  
         030626    176     176     176  
         030631    176     176     176  
         030634    176     176     176  
         030637    176                  
    2264 030640    000     000     377  	.byte	0, 0, 377, 377, 377, 377, 377, 377, 347, 347, 347, 347, 377, 377, 377, 377
         030643    377     377     377  
         030646    377     377     347  
         030651    347     347     347  
         030654    377     377     377  
         030657    377                  
    2265 030660    377     377     377  	.byte	377, 377, 377, 377, 377, 377, 303, 303, 333, 333, 333, 333, 303, 303, 377, 377
         030663    377     377     377  
         030666    303     303     333  
         030671    333     333     333  
         030674    303     303     377  
         030677    377                  
    2266 030700    377     377     201  	.byte	377, 377, 201, 1, 303, 203, 347, 4, 30, 10, 30, 357, 347, 307, 303, 2
         030703    001     303     203  
         030706    347     004     030  
         030711    010     030     357  
         030714    347     307     303  
         030717    002                  
    2267 030720    001     000     102  	.byte	1, 0, 102, 102, 2, 2, 146, 4, 30, 10, 30, 156, 146, 106, 102, 2
         030723    102     002     002  
         030726    146     004     030  
         030731    010     030     156  
         030734    146     106     102  
         030737    002                  
    2268 030740    102     000     044  	.byte	102, 0, 44, 4, 44, 4, 44, 0, 30, 10, 30, 10, 44, 0, 44, 0
         030743    004     044     004  
         030746    044     000     030  
         030751    010     030     010  
         030754    044     000     044  
         030757    000                  
    2269 030760    044     000     102  	.byte	44, 0, 102, 102, 2, 2, 146, 4, 30, 10, 30, 156, 146, 106, 102, 2
         030763    102     002     002  
         030766    146     004     030  
         030771    010     030     156  
         030774    146     106     102  
         030777    002                  
    2270 031000    102     000     000  	.byte	102, 0, 0, 44, 74, 132, 132, 74, 30, 74, 132, 74, 30, 30, 74, 44
         031003    044     074     132  
         031006    132     074     030  
         031011    074     132     074  
         031014    030     030     074  
         031017    044                  
    2271 031020    044     146     000  	.byte	44, 146, 0, 44, 74, 132, 132, 74, 30, 74, 132, 74, 30, 30, 74, 44
         031023    044     074     132  
         031026    132     074     030  
         031031    074     132     074  
         031034    030     030     074  
         031037    044                  
    2272 031040    044     146     000  	.byte	44, 146, 0, 44, 74, 132, 132, 74, 30, 74, 132, 74, 30, 30, 74, 44
         031043    044     074     132  
         031046    132     074     030  
         031051    074     132     074  
         031054    030     030     074  
         031057    044                  
    2273 031060    046     140     000  	.byte	46, 140, 0, 44, 74, 132, 132, 74, 30, 74, 132, 74, 30, 30, 74, 44
         031063    044     074     132  
         031066    132     074     030  
         031071    074     132     074  
         031074    030     030     074  
         031077    044                  
    2274 031100    046     140     000  	.byte	46, 140, 0, 30, 74, 134, 134, 74, 30, 30, 30, 70, 30, 30, 70, 56
         031103    030     074     134  
         031106    134     074     030  
         031111    030     030     070  
         031114    030     030     070  
         031117    056                  
    2275 031120    046     142     000  	.byte	46, 142, 0, 0, 30, 74, 134, 134, 74, 30, 30, 70, 30, 30, 30, 30
         031123    000     030     074  
         031126    134     134     074  
         031131    030     030     070  
         031134    030     030     030  
         031137    030                  
    2276 031140    030     060     000  	.byte	30, 60, 0, 0, 30, 74, 134, 134, 74, 30, 30, 70, 30, 30, 30, 70
         031143    000     030     074  
         031146    134     134     074  
         031151    030     030     070  
         031154    030     030     030  
         031157    070                  
    2277 031160    070     030     000  	.byte	70, 30, 0, 30, 74, 134, 134, 74, 30, 30, 30, 70, 30, 30, 30, 30
         031163    030     074     134  
         031166    134     074     030  
         031171    030     030     070  
         031174    030     030     030  
         031177    030                  
    2278 031200    030     060     000  	.byte	30, 60, 0, 30, 74, 72, 72, 74, 30, 30, 30, 34, 30, 30, 30, 30
         031203    030     074     072  
         031206    072     074     030  
         031211    030     030     034  
         031214    030     030     030  
         031217    030                  
    2279 031220    070     054     000  	.byte	70, 54, 0, 0, 30, 74, 72, 72, 74, 30, 30, 34, 30, 30, 30, 34
         031223    000     030     074  
         031226    072     072     074  
         031231    030     030     034  
         031234    030     030     030  
         031237    034                  
    2280 031240    034     030     000  	.byte	34, 30, 0, 0, 30, 74, 72, 72, 74, 30, 30, 34, 30, 30, 30, 30
         031243    000     030     074  
         031246    072     072     074  
         031251    030     030     034  
         031254    030     030     030  
         031257    030                  
    2281 031260    070     054     000  	.byte	70, 54, 0, 30, 74, 72, 72, 74, 30, 30, 30, 34, 30, 30, 34, 164
         031263    030     074     072  
         031266    072     074     030  
         031271    030     030     034  
         031274    030     030     034  
         031277    164                  
    2282 031300    144     106     377  	.byte	144, 106, 377, 377, 377, 231, 273, 231, 377, 377, 377, 377, 231, 273, 231, 377
         031303    377     377     231  
         031306    273     231     377  
         031311    377     377     377  
         031314    231     273     231  
         031317    377                  
    2283 031320    377     377     377  	.byte	377, 377, 377, 377, 377, 231, 273, 231, 377, 377, 377, 377, 231, 273, 231, 377
         031323    377     377     231  
         031326    273     231     377  
         031331    377     377     377  
         031334    231     273     231  
         031337    377                  
    2284 031340    377     377     000  	.byte	377, 377, 0, 0, 0, 0, 0, 0, 0, 0, 0, 0, 0, 0, 0, 0
         031343    000     000     000  
         031346    000     000     000  
         031351    000     000     000  
         031354    000     000     000  
         031357    000                  
    2285 031360    000     000     000  	.byte	0, 0, 0, 0, 0, 0, 0, 0, 0, 0, 0, 0, 0, 0, 0, 0
         031363    000     000     000  
         031366    000     000     000  
         031371    000     000     000  
         031374    000     000     000  
         031377    000                  
    2286 031400    000     000     020  	.byte	0, 0, 20, 0, 1, 202, 202, 202, 1, 0, 0, 201, 102, 102, 102, 201
         031403    000     001     202  
         031406    202     202     001  
         031411    000     000     201  
         031414    102     102     102  
         031417    201                  
    2287 031420    000     000     050  	.byte	0, 0, 50, 20, 200, 101, 142, 101, 200, 0, 0, 0, 201, 102, 201, 0
         031423    020     200     101  
         031426    142     101     200  
         031431    000     000     000  
         031434    201     102     201  
         031437    000                  
    2288 031440    020     050     104  	.byte	20, 50, 104, 50, 20, 200, 101, 200, 0, 0, 0, 0, 0, 0, 0, 20
         031443    050     020     200  
         031446    101     200     000  
         031451    000     000     000  
         031454    000     000     000  
         031457    020                  
    2289 031460    050     104     050  	.byte	50, 104, 50, 20, 0, 1, 202, 1, 0, 0, 0, 0, 203, 102, 203, 0
         031463    020     000     001  
         031466    202     001     000  
         031471    000     000     000  
         031474    203     102     203  
         031477    000                  
    2290 031500    020     050     000  	.byte	20, 50, 0, 76, 147, 147, 147, 147, 177, 76, 0, 30, 34, 34, 30, 30
         031503    076     147     147  
         031506    147     147     177  
         031511    076     000     030  
         031514    034     034     030  
         031517    030                  
    2291 031520    176     176     000  	.byte	176, 176, 0, 76, 163, 70, 34, 16, 177, 177, 0, 176, 60, 30, 60, 147
         031523    076     163     070  
         031526    034     016     177  
         031531    177     000     176  
         031534    060     030     060  
         031537    147                  
    2292 031540    177     076     000  	.byte	177, 76, 0, 3, 3, 73, 177, 70, 70, 70, 0, 177, 7, 77, 140, 147
         031543    003     003     073  
         031546    177     070     070  
         031551    070     000     177  
         031554    007     077     140  
         031557    147                  
    2293 031560    177     076     000  	.byte	177, 76, 0, 76, 7, 77, 147, 147, 177, 76, 0, 177, 161, 70, 34, 16
         031563    076     007     077  
         031566    147     147     177  
         031571    076     000     177  
         031574    161     070     034  
         031577    016                  
    2294 031600    007     007     000  	.byte	7, 7, 0, 76, 147, 76, 147, 147, 177, 76, 0, 76, 147, 147, 176, 70
         031603    076     147     076  
         031606    147     147     177  
         031611    076     000     076  
         031614    147     147     176  
         031617    070                  
    2295 031620    034     016     000  	.byte	34, 16, 0, 0, 30, 30, 0, 30, 30, 0, 0, 0, 70, 34, 16, 34
         031623    000     030     030  
         031626    000     030     030  
         031631    000     000     000  
         031634    070     034     016  
         031637    034                  
    2296 031640    070     000     000  	.byte	70, 0, 0, 0, 16, 34, 70, 34, 16, 0, 0, 0, 10, 34, 76, 66
         031643    000     016     034  
         031646    070     034     016  
         031651    000     000     000  
         031654    010     034     076  
         031657    066                  
    2297 031660    042     000     000  	.byte	42, 0, 0, 0, 42, 66, 76, 34, 10, 0, 0, 0, 140, 60, 30, 14
         031663    000     042     066  
         031666    076     034     010  
         031671    000     000     000  
         031674    140     060     030  
         031677    014                  
    2298 031700    006     000     000  	.byte	6, 0, 0, 0, 0, 0, 0, 0, 0, 0, 0, 34, 76, 147, 147, 177
         031703    000     000     000  
         031706    000     000     000  
         031711    000     000     034  
         031714    076     147     147  
         031717    177                  
    2299 031720    147     147     000  	.byte	147, 147, 0, 77, 147, 77, 147, 147, 147, 77, 0, 76, 147, 7, 7, 147
         031723    077     147     077  
         031726    147     147     147  
         031731    077     000     076  
         031734    147     007     007  
         031737    147                  
    2300 031740    177     076     000  	.byte	177, 76, 0, 37, 67, 147, 147, 67, 77, 37, 0, 177, 7, 77, 7, 7
         031743    037     067     147  
         031746    147     067     077  
         031751    037     000     177  
         031754    007     077     007  
         031757    007                  
    2301 031760    177     177     000  	.byte	177, 177, 0, 177, 7, 77, 7, 7, 7, 7, 0, 176, 7, 7, 167, 147
         031763    177     007     077  
         031766    007     007     007  
         031771    007     000     176  
         031774    007     007     167  
         031777    147                  
    2302 032000    177     176     000  	.byte	177, 176, 0, 147, 147, 177, 147, 147, 147, 147, 0, 76, 34, 34, 34, 34
         032003    147     147     177  
         032006    147     147     147  
         032011    147     000     076  
         032014    034     034     034  
         032017    034                  
    2303 032020    076     076     000  	.byte	76, 76, 0, 140, 140, 140, 140, 147, 176, 74, 0, 147, 67, 37, 37, 67
         032023    140     140     140  
         032026    140     147     176  
         032031    074     000     147  
         032034    067     037     037  
         032037    067                  
    2304 032040    147     147     000  	.byte	147, 147, 0, 7, 7, 7, 7, 7, 177, 177, 0, 143, 167, 177, 153, 143
         032043    007     007     007  
         032046    007     007     177  
         032051    177     000     143  
         032054    167     177     153  
         032057    143                  
    2305 032060    143     143     000  	.byte	143, 143, 0, 147, 157, 177, 177, 177, 167, 147, 0, 76, 143, 143, 143, 143
         032063    147     157     177  
         032066    177     177     167  
         032071    147     000     076  
         032074    143     143     143  
         032077    143                  
    2306 032100    177     076     000  	.byte	177, 76, 0, 77, 147, 147, 177, 77, 7, 7, 0, 76, 147, 147, 147, 67
         032103    077     147     147  
         032106    177     077     007  
         032111    007     000     076  
         032114    147     147     147  
         032117    067                  
    2307 032120    176     154     000  	.byte	176, 154, 0, 77, 147, 147, 77, 77, 147, 147, 0, 76, 7, 76, 140, 140
         032123    077     147     147  
         032126    077     077     147  
         032131    147     000     076  
         032134    007     076     140  
         032137    140                  
    2308 032140    177     077     000  	.byte	177, 77, 0, 177, 34, 34, 34, 34, 34, 34, 0, 147, 147, 147, 147, 147
         032143    177     034     034  
         032146    034     034     034  
         032151    034     000     147  
         032154    147     147     147  
         032157    147                  
    2309 032160    177     177     000  	.byte	177, 177, 0, 147, 147, 147, 147, 177, 76, 34, 0, 143, 143, 153, 177, 177
         032163    147     147     147  
         032166    147     177     076  
         032171    034     000     143  
         032174    143     153     177  
         032177    177                  
    2310 032200    167     143     000  	.byte	167, 143, 0, 147, 147, 74, 74, 147, 147, 147, 0, 143, 143, 76, 34, 34
         032203    147     147     074  
         032206    074     147     147  
         032211    147     000     143  
         032214    143     076     034  
         032217    034                  
    2311 032220    034     034     000  	.byte	34, 34, 0, 177, 70, 34, 16, 7, 177, 177
         032223    177     070     034  
         032226    016     007     177  
         032231    177                  
    2312                                
    2313                                	.even
    2314                                PPUEnd:
    2315                                
    2316 020060                         Field = PPUStart
    2317 023420                         FieldEnd = 40.*22.*2 + Field
    2318                                
    2319                                	.end	Start
    2320                                
    2320                                
