       1                                	.title	PPU
       2                                	.enabl	LC,AMA
       3                                	.list	MEB
       4                                	.asect
       5 000000                         	.=0
       6                                
       7 000001                         CmdClearScreen	  =  1.
       8 000002                         CmdUpdPalette	  =  2.
       9 000003                         CmdFixWait	  =  3.
      10 000004                         CmdRtiToCpu	  =  4.
      11 000005                         CmdSetVLines      =  5.
      12 000006                         CmdDrawTile       =  6.
      13 000007                         CmdBlackWhite     =  7.
      14 000010                         CmdPrintCaveStr   =  8.
      15 000011                         CmdPrintDiamonds  =  9.
      16 000012                         CmdPlaySound      = 10.
      17                                
      18 100000                         VADDR  = 100000
      19 000050                         SCRWID = 40.
      20 000440                         SCRHEI = 288.
      21                                
      22 102400                         VFieldAddr = 102400
      23                                
      24 000000                         COBJ_SPACE 			= ^x00
      25 000001                         COBJ_DIRT			= ^x01
      26 000002                         COBJ_BRICK			= ^x02
      27 000003                         COBJ_MAGIC			= ^x03
      28 000004                         COBJ_HIDDEN_OUTBOX		= ^x04
      29 000005                         COBJ_OUTBOX			= ^x05
      30 000006                         COBJ_FRAGILE_STEEL		= ^x06
      31 000007                         COBJ_STEEL			= ^x07
      32 000010                         COBJ_FIREFLY_LEFT		= ^x08
      33 000011                         COBJ_FIREFLY_UP			= ^x09
      34 000012                         COBJ_FIREFLY_RIGHT		= ^x0A
      35 000013                         COBJ_FIREFLY_DOWN		= ^x0B
      36 000014                         COBJ_FIREFLY_LEFT_SCAN		= ^x0C
      37 000015                         COBJ_FIREFLY_UP_SCAN		= ^x0D
      38 000016                         COBJ_FIREFLY_RIGHT_SCAN		= ^x0E
      39 000017                         COBJ_FIREFLY_DOWN_SCAN		= ^x0F
      40 000020                         COBJ_BOULDER			= ^x10
      41 000021                         COBJ_BOULDER_SCAN		= ^x11
      42 000022                         COBJ_BOULDER_FALL		= ^x12
      43 000023                         COBJ_BOULDER_FALL_SCAN		= ^x13
      44 000024                         COBJ_DIAMOND			= ^x14
      45 000025                         COBJ_DIAMOND_SCAN		= ^x15
      46 000026                         COBJ_DIAMOND_FALL		= ^x16
      47 000027                         COBJ_DIAMOND_FALL_SCAN		= ^x17
      48 000033                         COBJ_EXP_SPACE_0		= ^x1B
      49 000034                         COBJ_EXP_SPACE_1		= ^x1C
      50 000035                         COBJ_EXP_SPACE_2		= ^x1D
      51 000036                         COBJ_EXP_SPACE_3		= ^x1E
      52 000037                         COBJ_EXP_SPACE_4		= ^x1F
      53 000040                         COBJ_EXP_DIAMOND_0		= ^x20
      54 000041                         COBJ_EXP_DIAMOND_1		= ^x21
      55 000042                         COBJ_EXP_DIAMOND_2		= ^x22
      56 000043                         COBJ_EXP_DIAMOND_3		= ^x23
      57 000044                         COBJ_EXP_DIAMOND_4		= ^x24
      58 000045                         COBJ_INBOX			= ^x25
      59 000046                         COBJ_PREROCKFORD_1		= ^x26
      60 000047                         COBJ_PREROCKFORD_2		= ^x27
      61 000050                         COBJ_PREROCKFORD_3		= ^x28
      62 000060                         COBJ_BUTTERFLY_DOWN		= ^x30
      63 000061                         COBJ_BUTTERFLY_LEFT		= ^x31
      64 000062                         COBJ_BUTTERFLY_UP		= ^x32
      65 000063                         COBJ_BUTTERFLY_RIGHT		= ^x33
      66 000064                         COBJ_BUTTERFLY_DOWN_SCAN 	= ^x34
      67 000065                         COBJ_BUTTERFLY_LEFT_SCAN 	= ^x35
      68 000066                         COBJ_BUTTERFLY_UP_SCAN		= ^x36
      69 000067                         COBJ_BUTTERFLY_RIGHT_SCAN 	= ^x37
      70                                
      71 000070                         COBJ_AMOEBA			= ^x38
      72 000071                         COBJ_AMOEBA_SCAN		= ^x39
      73 000072                         COBJ_ROCKFORD			= ^x3A
      74 000073                         COBJ_ROCKFORD_SCAN		= ^x3B
      75 000074                         COBJ_ROCKFORD_RIGHT      	= ^x3C
      76 000075                         COBJ_ROCKFORD_RIGHT_SCAN 	= ^x3D
      77 000076                         COBJ_ROCKFORD_LEFT       	= ^x3E
      78 000077                         COBJ_ROCKFORD_LEFT_SCAN  	= ^x3F
      79                                
      80 000020                         ANIMATED_BEGIN		= 16.
      81 000014                         COLORED_ENDS		= 12.
      82                                
      83 000001                         SND_BOOM 	= 1
      84 000002                         SND_TICK 	= 2
      85 000003                         SND_BOULDER	= 3
      86 000004                         SND_DIAMOND 	= 4
      87 000005                         SND_EMERGE 	= 5
      88 000006                         SND_DIRT	= 6
      89                                
      90 157670                         Key8		= 157670
      91 157672                         Key7		= 157672
      92 157674                         Key6		= 157674
      93 157676                         Key5		= 157676
      94 157700                         Key4		= 157700
      95 157702                         Key3		= 157702
      96 157704                         Key2		= 157704
      97 157706                         Key1		= 157706
      98 157710                         KeyK5		= 157710
      99 157712                         KeyK4		= 157712
     100 157714                         KeyK3		= 157714
     101 157716                         KeyK2		= 157716
     102 157720                         KeyK1		= 157720
     103 157722                         KeyStop		= 157722
     104 157724                         KeyUst		= 157724
     105 157726                         KeyShift	= 157726
     106 157730                         KeyEnter	= 157730
     107 157732                         KeySpace	= 157732
     108 157734                         KeyRight	= 157734
     109 157736                         KeyLeft		= 157736
     110 157740                         KeyDown		= 157740
     111 157742                         KeyUp		= 157742
     112 157744                         KeyCombo	= 157744
     113 157746                         KeyAny		= 157746
     114 157750                         KeyCurrent	= 157750
     115                                
     116 157752                         PpuRtiCount2	= 157752
     117 157754                         PpuWaitCount	= 157754
     118 157756                         VSyncCount1	= 157756
     119 157760                         VSyncCount2	= 157760
     120                                
     121 157762                         PpuR0		= 157762
     122 157764                         PpuR1		= 157764
     123 157766                         PpuR2		= 157766
     124 157770                         PpuR3		= 157770
     125 157772                         PpuR4		= 157772
     126 157774                         PpuR5		= 157774
     127 157776                         PpuCommand	= 157776
     128                                
     129 000000 000207  000000  004440  	.word	000207, 000, RTIADR, 200, RTIADR, 200, RTIADR, 200, RTIADR, 200, RTIADR, 200, RTIADR, 200, RTIADR, 200
         000006 000200  004440  000200  
         000014 004440  000200  004440  
         000022 000200  004440  000200  
         000030 004440  000200  004440  
         000036 000200                  
     130 000040 004440  000200  004440  	.word	RTIADR, 200, RTIADR, 200, RTIADR, 200, RTIADR, 200, RTIADR, 200, RTIADR, 200, RTIADR, 200, RTIADR, 200
         000046 000200  004440  000200  
         000054 004440  000200  004440  
         000062 000200  004440  000200  
         000070 004440  000200  004440  
         000076 000200                  
     131 000100 004440  000200  004440  	.word	RTIADR, 200, RTIADR, 200, RTIADR, 200, RTIADR, 200, RTIADR, 200, RTIADR, 200, RTIADR, 200, RTIADR, 200
         000106 000200  004440  000200  
         000114 004440  000200  004440  
         000122 000200  004440  000200  
         000130 004440  000200  004440  
         000136 000200                  
     132 000140 004440  000200  004440  	.word	RTIADR, 200, RTIADR, 200, RTIADR, 200, RTIADR, 200, RTIADR, 200, RTIADR, 200, RTIADR, 200, RTIADR, 200
         000146 000200  004440  000200  
         000154 004440  000200  004440  
         000162 000200  004440  000200  
         000170 004440  000200  004440  
         000176 000200                  
     133 000200 004440  000200  004440  	.word	RTIADR, 200, RTIADR, 200, RTIADR, 200, RTIADR, 200, RTIADR, 200, RTIADR, 200, RTIADR, 200, RTIADR, 200
         000206 000200  004440  000200  
         000214 004440  000200  004440  
         000222 000200  004440  000200  
         000230 004440  000200  004440  
         000236 000200                  
     134 000240 004440  000200  004440  	.word	RTIADR, 200, RTIADR, 200, RTIADR, 200, RTIADR, 200, RTIADR, 200, RTIADR, 200, 000000,1016, RTIADR, 200
         000246 000200  004440  000200  
         000254 004440  000200  004440  
         000262 000200  004440  000200  
         000270 000000  001016  004440  
         000276 000200                  
     135 000300 004440  000200  004440  	.word	RTIADR, 200, RTIADR, 200, RTIADR, 200, RTIADR, 200, RTIADR, 200, RTIADR, 200, RTIADR, 200, RTIADR, 200
         000306 000200  004440  000200  
         000314 004440  000200  004440  
         000322 000200  004440  000200  
         000330 004440  000200  004440  
         000336 000200                  
     136 000340 004440  000200  004440  	.word	RTIADR, 200, RTIADR, 200, RTIADR, 200, RTIADR, 200, RTIADR, 200, RTIADR, 200, RTIADR, 200, RTIADR, 200
         000346 000200  004440  000200  
         000354 004440  000200  004440  
         000362 000200  004440  000200  
         000370 004440  000200  004440  
         000376 000200                  
     137 000400 004440  000200  004440  	.word	RTIADR, 200, RTIADR, 200, RTIADR, 200, RTIADR, 200, RTIADR, 200, RTIADR, 200, RTIADR, 200, RTIADR, 200
         000406 000200  004440  000200  
         000414 004440  000200  004440  
         000422 000200  004440  000200  
         000430 004440  000200  004440  
         000436 000200                  
     138 000440 004440  000200  004440  	.word	RTIADR, 200, RTIADR, 200, RTIADR, 200, RTIADR, 200, RTIADR, 200, RTIADR, 200, RTIADR, 200, RTIADR, 200
         000446 000200  004440  000200  
         000454 004440  000200  004440  
         000462 000200  004440  000200  
         000470 004440  000200  004440  
         000476 000200                  
     139 000500 004440  000200  004440  	.word	RTIADR, 200, RTIADR, 200, RTIADR, 200, RTIADR, 200, RTIADR, 200, RTIADR, 200, RTIADR, 200, RTIADR, 200
         000506 000200  004440  000200  
         000514 004440  000200  004440  
         000522 000200  004440  000200  
         000530 004440  000200  004440  
         000536 000200                  
     140 000540 000000  000000  000000  	.word	0, 0, 0, 0, 0, 0, 0, 0, 0, 0, 0, 0, 0, 0, 0, 0
         000546 000000  000000  000000  
         000554 000000  000000  000000  
         000562 000000  000000  000000  
         000570 000000  000000  000000  
         000576 000000                  
     141 000600 000000  000000  000000  	.word	0, 0, 0, 0, 0, 0, 0, 0, 0, 0, 0, 0, 0, 0, 0, 0
         000606 000000  000000  000000  
         000614 000000  000000  000000  
         000622 000000  000000  000000  
         000630 000000  000000  000000  
         000636 000000                  
     142 000640 000000  000000  000000  	.word	0, 0, 0, 0, 0, 0, 0, 0, 0, 0, 0, 0, 0, 0, 0, 0
         000646 000000  000000  000000  
         000654 000000  000000  000000  
         000662 000000  000000  000000  
         000670 000000  000000  000000  
         000676 000000                  
     143 000700 000000  000000  000000  	.word	0, 0, 0, 0, 0, 0, 0, 0, 0, 0, 0, 0, 0, 0, 0, 0
         000706 000000  000000  000000  
         000714 000000  000000  000000  
         000722 000000  000000  000000  
         000730 000000  000000  000000  
         000736 000000                  
     144 000740 000000  000000  000000  	.word	0, 0, 0, 0, 0, 0, 0, 0, 0, 0, 0, 0, 0, 0, 0, 0
         000746 000000  000000  000000  
         000754 000000  000000  000000  
         000762 000000  000000  000000  
         000770 000000  000000  000000  
         000776 000000                  
     145                                
     146 001000 106427  000200          START:	mtps	#200
     147 001004 000137  004134          	jmp	PPUMain
     148                                
     149                                VLinesBegin:
     150 001010 156230                  	.word	^B1101110010011000
     151 001012 177272                  	.word	^B1111111010111010
     152 001014 000000  001022          	.word	0, 1022
     153 001020 000020                  	.word	^B0000000000010000
     154 001022 000047                  	.word	^B0000000000100111
     155 001024 000000  001030          	.word	0, 1030
     156 001030 000000  001034  000000  	.word	0, 1034, 0, 1040, 0, 1044, 0, 1050
         001036 001040  000000  001044  
         001044 000000  001050          
     157 001050 000000  001054  000000  	.word	0, 1054, 0, 1060, 0, 1064, 0, 1070
         001056 001060  000000  001064  
         001064 000000  001070          
     158 001070 000000  001074  000000  	.word	0, 1074, 0, 1100, 0, 1104, 0, 1110
         001076 001100  000000  001104  
         001104 000000  001110          
     159 001110 000000  001114  000000  	.word	0, 1114, 0, 1120, 0, 1124, 0, 1130
         001116 001120  000000  001124  
         001124 000000  001130          
     160                                VLinesTable:
     161 001130 100000  001134  100050  	.word	100000,1134, 100050,1140, 100120,1144, 100170,1150, 100240,1154, 100310,1160, 100360,1164, 100430,1170, 100500,1174, 100550,1200, 100620,1204, 100670,1210, 100740,1214, 101010,1220, 101060,1224, 101130,1230
         001136 001140  100120  001144  
         001144 100170  001150  100240  
         001152 001154  100310  001160  
         001160 100360  001164  100430  
         001166 001170  100500  001174  
         001174 100550  001200  100620  
         001202 001204  100670  001210  
         001210 100740  001214  101010  
         001216 001220  101060  001224  
         001224 101130  001230          
     162 001230 101200  001234  101250  	.word	101200,1234, 101250,1240, 101320,1244, 101370,1250, 101440,1254, 101510,1260, 101560,1264, 101630,1270, 101700,1274, 101750,1300, 102020,1304, 102070,1310, 102140,1314, 102210,1320, 102260,1324, 102330,1330
         001236 001240  101320  001244  
         001244 101370  001250  101440  
         001252 001254  101510  001260  
         001260 101560  001264  101630  
         001266 001270  101700  001274  
         001274 101750  001300  102020  
         001302 001304  102070  001310  
         001310 102140  001314  102210  
         001316 001320  102260  001324  
         001324 102330  001330          
     163                                VLinesField:
     164 001330 102400  001334  102450  	.word	102400,1334, 102450,1340, 102520,1344, 102570,1350, 102640,1354, 102710,1360, 102760,1364, 103030,1370, 103100,1374, 103150,1400, 103220,1404, 103270,1410, 103340,1414, 103410,1420, 103460,1424, 103530,1430
         001336 001340  102520  001344  
         001344 102570  001350  102640  
         001352 001354  102710  001360  
         001360 102760  001364  103030  
         001366 001370  103100  001374  
         001374 103150  001400  103220  
         001402 001404  103270  001410  
         001410 103340  001414  103410  
         001416 001420  103460  001424  
         001424 103530  001430          
     165 001430 103600  001434  103650  	.word	103600,1434, 103650,1440, 103720,1444, 103770,1450, 104040,1454, 104110,1460, 104160,1464, 104230,1470, 104300,1474, 104350,1500, 104420,1504, 104470,1510, 104540,1514, 104610,1520, 104660,1524, 104730,1530
         001436 001440  103720  001444  
         001444 103770  001450  104040  
         001452 001454  104110  001460  
         001460 104160  001464  104230  
         001466 001470  104300  001474  
         001474 104350  001500  104420  
         001502 001504  104470  001510  
         001510 104540  001514  104610  
         001516 001520  104660  001524  
         001524 104730  001530          
     166 001530 105000  001534  105050  	.word	105000,1534, 105050,1540, 105120,1544, 105170,1550, 105240,1554, 105310,1560, 105360,1564, 105430,1570, 105500,1574, 105550,1600, 105620,1604, 105670,1610, 105740,1614, 106010,1620, 106060,1624, 106130,1630
         001536 001540  105120  001544  
         001544 105170  001550  105240  
         001552 001554  105310  001560  
         001560 105360  001564  105430  
         001566 001570  105500  001574  
         001574 105550  001600  105620  
         001602 001604  105670  001610  
         001610 105740  001614  106010  
         001616 001620  106060  001624  
         001624 106130  001630          
     167 001630 106200  001634  106250  	.word	106200,1634, 106250,1640, 106320,1644, 106370,1650, 106440,1654, 106510,1660, 106560,1664, 106630,1670, 106700,1674, 106750,1700, 107020,1704, 107070,1710, 107140,1714, 107210,1720, 107260,1724, 107330,1730
         001636 001640  106320  001644  
         001644 106370  001650  106440  
         001652 001654  106510  001660  
         001660 106560  001664  106630  
         001666 001670  106700  001674  
         001674 106750  001700  107020  
         001702 001704  107070  001710  
         001710 107140  001714  107210  
         001716 001720  107260  001724  
         001724 107330  001730          
     168 001730 107400  001734  107450  	.word	107400,1734, 107450,1740, 107520,1744, 107570,1750, 107640,1754, 107710,1760, 107760,1764, 110030,1770, 110100,1774, 110150,2000, 110220,2004, 110270,2010, 110340,2014, 110410,2020, 110460,2024, 110530,2030
         001736 001740  107520  001744  
         001744 107570  001750  107640  
         001752 001754  107710  001760  
         001760 107760  001764  110030  
         001766 001770  110100  001774  
         001774 110150  002000  110220  
         002002 002004  110270  002010  
         002010 110340  002014  110410  
         002016 002020  110460  002024  
         002024 110530  002030          
     169 002030 110600  002034  110650  	.word	110600,2034, 110650,2040, 110720,2044, 110770,2050, 111040,2054, 111110,2060, 111160,2064, 111230,2070, 111300,2074, 111350,2100, 111420,2104, 111470,2110, 111540,2114, 111610,2120, 111660,2124, 111730,2130
         002036 002040  110720  002044  
         002044 110770  002050  111040  
         002052 002054  111110  002060  
         002060 111160  002064  111230  
         002066 002070  111300  002074  
         002074 111350  002100  111420  
         002102 002104  111470  002110  
         002110 111540  002114  111610  
         002116 002120  111660  002124  
         002124 111730  002130          
     170 002130 112000  002134  112050  	.word	112000,2134, 112050,2140, 112120,2144, 112170,2150, 112240,2154, 112310,2160, 112360,2164, 112430,2170, 112500,2174, 112550,2200, 112620,2204, 112670,2210, 112740,2214, 113010,2220, 113060,2224, 113130,2230
         002136 002140  112120  002144  
         002144 112170  002150  112240  
         002152 002154  112310  002160  
         002160 112360  002164  112430  
         002166 002170  112500  002174  
         002174 112550  002200  112620  
         002202 002204  112670  002210  
         002210 112740  002214  113010  
         002216 002220  113060  002224  
         002224 113130  002230          
     171 002230 113200  002234  113250  	.word	113200,2234, 113250,2240, 113320,2244, 113370,2250, 113440,2254, 113510,2260, 113560,2264, 113630,2270, 113700,2274, 113750,2300, 114020,2304, 114070,2310, 114140,2314, 114210,2320, 114260,2324, 114330,2330
         002236 002240  113320  002244  
         002244 113370  002250  113440  
         002252 002254  113510  002260  
         002260 113560  002264  113630  
         002266 002270  113700  002274  
         002274 113750  002300  114020  
         002302 002304  114070  002310  
         002310 114140  002314  114210  
         002316 002320  114260  002324  
         002324 114330  002330          
     172 002330 114400  002334  114450  	.word	114400,2334, 114450,2340, 114520,2344, 114570,2350, 114640,2354, 114710,2360, 114760,2364, 115030,2370, 115100,2374, 115150,2400, 115220,2404, 115270,2410, 115340,2414, 115410,2420, 115460,2424, 115530,2430
         002336 002340  114520  002344  
         002344 114570  002350  114640  
         002352 002354  114710  002360  
         002360 114760  002364  115030  
         002366 002370  115100  002374  
         002374 115150  002400  115220  
         002402 002404  115270  002410  
         002410 115340  002414  115410  
         002416 002420  115460  002424  
         002424 115530  002430          
     173 002430 115600  002434  115650  	.word	115600,2434, 115650,2440, 115720,2444, 115770,2450, 116040,2454, 116110,2460, 116160,2464, 116230,2470, 116300,2474, 116350,2500, 116420,2504, 116470,2510, 116540,2514, 116610,2520, 116660,2524, 116730,2530
         002436 002440  115720  002444  
         002444 115770  002450  116040  
         002452 002454  116110  002460  
         002460 116160  002464  116230  
         002466 002470  116300  002474  
         002474 116350  002500  116420  
         002502 002504  116470  002510  
         002510 116540  002514  116610  
         002516 002520  116660  002524  
         002524 116730  002530          
     174 002530 117000  002534  117050  	.word	117000,2534, 117050,2540, 117120,2544, 117170,2550, 117240,2554, 117310,2560, 117360,2564, 117430,2570, 117500,2574, 117550,2600, 117620,2604, 117670,2610, 117740,2614, 120010,2620, 120060,2624, 120130,2630
         002536 002540  117120  002544  
         002544 117170  002550  117240  
         002552 002554  117310  002560  
         002560 117360  002564  117430  
         002566 002570  117500  002574  
         002574 117550  002600  117620  
         002602 002604  117670  002610  
         002610 117740  002614  120010  
         002616 002620  120060  002624  
         002624 120130  002630          
     175 002630 120200  002634  120250  	.word	120200,2634, 120250,2640, 120320,2644, 120370,2650, 120440,2654, 120510,2660, 120560,2664, 120630,2670, 120700,2674, 120750,2700, 121020,2704, 121070,2710, 121140,2714, 121210,2720, 121260,2724, 121330,2730
         002636 002640  120320  002644  
         002644 120370  002650  120440  
         002652 002654  120510  002660  
         002660 120560  002664  120630  
         002666 002670  120700  002674  
         002674 120750  002700  121020  
         002702 002704  121070  002710  
         002710 121140  002714  121210  
         002716 002720  121260  002724  
         002724 121330  002730          
     176 002730 121400  002734  121450  	.word	121400,2734, 121450,2740, 121520,2744, 121570,2750, 121640,2754, 121710,2760, 121760,2764, 122030,2770, 122100,2774, 122150,3000, 122220,3004, 122270,3010, 122340,3014, 122410,3020, 122460,3024, 122530,3030
         002736 002740  121520  002744  
         002744 121570  002750  121640  
         002752 002754  121710  002760  
         002760 121760  002764  122030  
         002766 002770  122100  002774  
         002774 122150  003000  122220  
         003002 003004  122270  003010  
         003010 122340  003014  122410  
         003016 003020  122460  003024  
         003024 122530  003030          
     177 003030 122600  003034  122650  	.word	122600,3034, 122650,3040, 122720,3044, 122770,3050, 123040,3054, 123110,3060, 123160,3064, 123230,3070, 123300,3074, 123350,3100, 123420,3104, 123470,3110, 123540,3114, 123610,3120, 123660,3124, 123730,3130
         003036 003040  122720  003044  
         003044 122770  003050  123040  
         003052 003054  123110  003060  
         003060 123160  003064  123230  
         003066 003070  123300  003074  
         003074 123350  003100  123420  
         003102 003104  123470  003110  
         003110 123540  003114  123610  
         003116 003120  123660  003124  
         003124 123730  003130          
     178 003130 124000  003134  124050  	.word	124000,3134, 124050,3140, 124120,3144, 124170,3150, 124240,3154, 124310,3160, 124360,3164, 124430,3170, 124500,3174, 124550,3200, 124620,3204, 124670,3210, 124740,3214, 125010,3220, 125060,3224, 125130,3230
         003136 003140  124120  003144  
         003144 124170  003150  124240  
         003152 003154  124310  003160  
         003160 124360  003164  124430  
         003166 003170  124500  003174  
         003174 124550  003200  124620  
         003202 003204  124670  003210  
         003210 124740  003214  125010  
         003216 003220  125060  003224  
         003224 125130  003230          
     179 003230 125200  003234  125250  	.word	125200,3234, 125250,3240, 125320,3244, 125370,3250, 125440,3254, 125510,3260, 125560,3264, 125630,3270, 125700,3274, 125750,3300, 126020,3304, 126070,3310, 126140,3314, 126210,3320, 126260,3324, 126330,3330
         003236 003240  125320  003244  
         003244 125370  003250  125440  
         003252 003254  125510  003260  
         003260 125560  003264  125630  
         003266 003270  125700  003274  
         003274 125750  003300  126020  
         003302 003304  126070  003310  
         003310 126140  003314  126210  
         003316 003320  126260  003324  
         003324 126330  003330          
     180 003330 126400  003334  126450  	.word	126400,3334, 126450,3340, 126520,3344, 126570,3350, 126640,3354, 126710,3360, 126760,3364, 127030,3370, 127100,3374, 127150,3400, 127220,3404, 127270,3410, 127340,3414, 127410,3420, 127460,3424, 127530,3430
         003336 003340  126520  003344  
         003344 126570  003350  126640  
         003352 003354  126710  003360  
         003360 126760  003364  127030  
         003366 003370  127100  003374  
         003374 127150  003400  127220  
         003402 003404  127270  003410  
         003410 127340  003414  127410  
         003416 003420  127460  003424  
         003424 127530  003430          
     181 003430 127600  003434  127650  	.word	127600,3434, 127650,3440, 127720,3444, 127770,3450, 130040,3454, 130110,3460, 130160,3464, 130230,3470, 130300,3474, 130350,3500, 130420,3504, 130470,3510, 130540,3514, 130610,3520, 130660,3524, 130730,3530
         003436 003440  127720  003444  
         003444 127770  003450  130040  
         003452 003454  130110  003460  
         003460 130160  003464  130230  
         003466 003470  130300  003474  
         003474 130350  003500  130420  
         003502 003504  130470  003510  
         003510 130540  003514  130610  
         003516 003520  130660  003524  
         003524 130730  003530          
     182 003530 131000  003534  131050  	.word	131000,3534, 131050,3540, 131120,3544, 131170,3550, 131240,3554, 131310,3560, 131360,3564, 131430,3570, 131500,3574, 131550,3600, 131620,3604, 131670,3610, 131740,3614, 132010,3620, 132060,3624, 132130,3630
         003536 003540  131120  003544  
         003544 131170  003550  131240  
         003552 003554  131310  003560  
         003560 131360  003564  131430  
         003566 003570  131500  003574  
         003574 131550  003600  131620  
         003602 003604  131670  003610  
         003610 131740  003614  132010  
         003616 003620  132060  003624  
         003624 132130  003630          
     183 003630 132200  003634  132250  	.word	132200,3634, 132250,3640, 132320,3644, 132370,3650, 132440,3654, 132510,3660, 132560,3664, 132630,3670, 132700,3674, 132750,3700, 133020,3704, 133070,3710, 133140,3714, 133210,3720, 133260,3724, 133330,3730
         003636 003640  132320  003644  
         003644 132370  003650  132440  
         003652 003654  132510  003660  
         003660 132560  003664  132630  
         003666 003670  132700  003674  
         003674 132750  003700  133020  
         003702 003704  133070  003710  
         003710 133140  003714  133210  
         003716 003720  133260  003724  
         003724 133330  003730          
     184 003730 133400  003734  133450  	.word	133400,3734, 133450,3740, 133520,3744, 133570,3750, 133640,3754, 133710,3760, 133760,3764, 134030,3770, 134100,3774, 134150,4000, 134220,4004, 134270,4010, 134340,4014, 134410,4020, 134460,4024, 134530,4030
         003736 003740  133520  003744  
         003744 133570  003750  133640  
         003752 003754  133710  003760  
         003760 133760  003764  134030  
         003766 003770  134100  003774  
         003774 134150  004000  134220  
         004002 004004  134270  004010  
         004010 134340  004014  134410  
         004016 004020  134460  004024  
         004024 134530  004030          
     185 004030 134600  004034  134650  	.word	134600,4034, 134650,4040, 134720,4044, 134770,4050, 135040,4054, 135110,4060, 135160,4064, 135230,4070, 135300,4074, 135350,4100, 135420,4104, 135470,4110, 135540,4114, 135610,4120, 135660,4124, 135730,4130
         004036 004040  134720  004044  
         004044 134770  004050  135040  
         004052 004054  135110  004060  
         004060 135160  004064  135230  
         004066 004070  135300  004074  
         004074 135350  004100  135420  
         004102 004104  135470  004110  
         004110 135540  004114  135610  
         004116 004120  135660  004124  
         004124 135730  004130          
     186 004130 136000  004130          	.word	136000,4130
     187                                
     188                                PPUMain:
     189 004134 012706  001000          	mov	#1000, SP
     190 004140 012737  000361  177054  	mov	#361, @#177054
     191 004146 004737  004466          	call	CleaUp
     192 004152 012700  100000          	mov	#100000, R0
     193 004156 012703  037400          	mov	#177000-100000/2, R3
     194 004162 005020                  	clr	(R0)+
     195 004164 077302                  	sob	R3, .-2
     196                                
     197 004166 012737  067777  177010  	mov	#PpuCommand/2, @#177010
     198 004174 022737  177777  177014  	cmp     #177777, @#177014
     199 004202 001371                  	bne	.-14
     200                                
     201 004204 005037  177026          	clr	@#177026
     202 004210 042737  000107  177066  	bic	#107, @#177066
     203                                
     204 004216 042737  001000  177054  	bic	#^B0000001000000000, @#177054
     205 004224 052737  000400  177054  	bis	#^B0000000100000000, @#177054
     206 004232 004737  004446          	call	TimerInit
     207 004236 042737  000200  177716  	bic	#200, @#177716
     208                                
     209 004244 012737  006020  000300  	mov	#INTKeyboard,  @#300
     210 004252 052737  000100  177700  	bis	#100, @#177700
     211                                
     212 004260 012737  067777  177010  	mov	#PpuCommand/2, @#177010
     213 004266 005037  177014          	clr	@#177014
     214                                
     215 004272 106427  000000          	mtps	#0
     216                                
     217                                MainCycle:
     218 004276 004737  004304          	call	CmdPro
     219 004302 000775                  	br	MainCycle
     220                                
     221 004304 012737  067777  177010  CmdPro:	mov	#PpuCommand/2, @#177010
     222 004312 005737  177014          	tst	@#177014
     223 004316 001003                  	bne	10$
     224 004320 005237  004542          	inc	WaiPP0
     225 004324 000207                  	return
     226 004326 012704  177010          10$:	mov	#177010, R4
     227 004332 012705  177014          	mov	#177014, R5
     228 004336 012714  067771          	mov	#PpuR0/2, (R4)
     229 004342 011500                  	mov	(R5), R0
     230 004344 005214                  	inc	(R4)
     231 004346 011501                  	mov	(R5), R1
     232 004350 005214                  	inc	(R4)
     233 004352 011502                  	mov	(R5), R2
     234 004354 005214                  	inc	(R4)
     235 004356 011503                  	mov	(R5), R3
     236 004360 005214                  	inc	(R4)
     237 004362 005214                  	inc	(R4)
     238 004364 005214                  	inc	(R4)
     239 004366 011505                  	mov	(R5), R5
     240 004370 006305                  	asl	R5
     241 004372 004775  004412          	call	@CommandsTable(R5)
     242 004376 012737  067777  177010  	mov	#PpuCommand/2, @#177010
     243 004404 005037  177014          	clr	@#177014
     244 004410 000207                  	return
     245                                
     246                                CommandsTable:
     247 004412 006576                  	.word	Error
     248 004414 004504                  	.word	ClearScreen
     249 004416 004522                  	.word	PalUpd
     250 004420 004544                  	.word	FxWait
     251 004422 004566                  	.word	ReqRcn
     252 004424 005006                  	.word	SetVLines
     253 004426 005212                  	.word	DrawTile
     254 004430 005336                  	.word	BlackWhite
     255 004432 005450                  	.word	PrintCaveStr
     256 004434 005576                  	.word	PrintDiamonds
     257 004436 005632                  	.word	PlaySound
     258                                
     259 004440 005227                  RtiAdr:	inc	(PC)+
     260 004442 000000                  RtiCnt:	.word	0
     261 004444 000002                  	rti
     262                                
     263                                TimerInit:
     264 004446 005037  177710          	clr	@#177710
     265 004452 005737  177714          	tst	@#177714
     266 004456 005737  177710          	tst	@#177710
     267 004462 001371                  	bne	TimerInit
     268 004464 000207                  	return
     269                                
     270 004466 012700  012152          CleaUp:	mov	#END, R0
     271 004472 012702  032713          	mov	#100000-END/2, R2
     272 004476 005020                  	clr	(R0)+
     273 004500 077202                  	sob	R2, .-2
     274 004502 000207                  	return
     275                                
     276                                ClearScreen:
     277 004504 012705  100000          	mov	#VADDR, R5
     278 004510 012703  017000          	mov	#SCRWID*384./2, R3		; total 384. lines
     279 004514 005025                  10$:	clr	(R5)+
     280 004516 077302                  	sob	R3, 10$
     281 004520 000207                  	return
     282                                
     283 004522 012705  001010          PalUpd:	mov	#VLinesBegin, R5
     284 004526 010025                  	mov	R0, (R5)+
     285 004530 010125                  	mov	R1, (R5)+
     286 004532 022525                  	cmp	(R5)+, (R5)+
     287 004534 010225                  	mov	R2, (R5)+
     288 004536 010315                  	mov	R3, (R5)
     289 004540 000207                  	return
     290                                
     291 004542 000000                  WaiPP0:	.word	0
     292 004544 012737  067766  177010  FxWait:	mov	#<PpuWaitCount/2>, @#177010
     293 004552 013737  004542  177014  	mov	WaiPP0, @#177014
     294 004560 005037  004542          	clr	WaiPP0
     295 004564 000207                  	return
     296                                
     297 004566 012737  067765  177010  ReqRcn:	mov	#<PpuRtiCount2/2>, @#177010
     298 004574 013737  004442  177014  	mov	RTICNT, @#177014
     299 004602 000207                  	return
     300                                
     301                                SetVreg:
     302 004604 012704  177010          	mov	#177010, R4
     303 004610 012705  177012          	mov	#177012, R5
     304 004614 000207                  	return
     305                                
     306                                PrintStr:
     307 004616 012704  177010          	mov	#177010, R4
     308 004622 012705  177024          	mov	#177024, R5
     309 004626 010114                  	mov	R1, (R4)
     310 004630 012737  000007  177016  	mov	#7., @#177016
     311 004636 005037  177020          	clr	@#177020
     312 004642 005037  177022          	clr	@#177022
     313 004646 012702  000050          	mov	#SCRWID, R2
     314 004652 112001                  10$:	movb	(R0)+, R1
     315 004654 001453                  	beq	99$
     316 004656 020127  000007          	cmp	R1, #7.
     317 004662 101003                  	bhi	20$
     318 004664 010137  177016          	mov	R1, @#177016
     319 004670 000770                  	br	10$
     320 004672 162701  000060          20$:	sub	#'0, R1
     321 004676 002002                  	bge	30$
     322 004700 012701  000020          	mov	#16., R1
     323 004704 006301                  30$:	asl	R1
     324 004706 006301                  	asl	R1
     325 004710 006301                  	asl	R1
     326 004712 062701  011422          	add	#FontPpuData, R1
     327                                	.rept	8.
     328                                	movb	(R1)+, R3
     329                                	mov	R3, (R5)
     330                                	add	R2, (R4)
     331                                	.endr
       1 004716 112103                  	movb	(R1)+, R3
       2 004720 010315                  	mov	R3, (R5)
       3 004722 060214                  	add	R2, (R4)
       1 004724 112103                  	movb	(R1)+, R3
       2 004726 010315                  	mov	R3, (R5)
       3 004730 060214                  	add	R2, (R4)
       1 004732 112103                  	movb	(R1)+, R3
       2 004734 010315                  	mov	R3, (R5)
       3 004736 060214                  	add	R2, (R4)
       1 004740 112103                  	movb	(R1)+, R3
       2 004742 010315                  	mov	R3, (R5)
       3 004744 060214                  	add	R2, (R4)
       1 004746 112103                  	movb	(R1)+, R3
       2 004750 010315                  	mov	R3, (R5)
       3 004752 060214                  	add	R2, (R4)
       1 004754 112103                  	movb	(R1)+, R3
       2 004756 010315                  	mov	R3, (R5)
       3 004760 060214                  	add	R2, (R4)
       1 004762 112103                  	movb	(R1)+, R3
       2 004764 010315                  	mov	R3, (R5)
       3 004766 060214                  	add	R2, (R4)
       1 004770 112103                  	movb	(R1)+, R3
       2 004772 010315                  	mov	R3, (R5)
       3 004774 060214                  	add	R2, (R4)
     332 004776 162714  000477          	sub	#SCRWID*8.-1, (R4)
     333 005002 000723                  	br	10$
     334 005004 000207                  99$:	return
     335                                
     336                                SetVLines:
     337 005006 012701  001330          	mov	#VLinesField, R1
     338 005012 012703  000100          	mov	#256./4, R3
     339                                10$:	.rept	4
     340                                	mov	R0, (R1)+
     341                                	inc	R1
     342                                	inc	R1
     343                                	add	#SCRWID, R0
     344                                	.endr
       1 005016 010021                  	mov	R0, (R1)+
       2 005020 005201                  	inc	R1
       3 005022 005201                  	inc	R1
       4 005024 062700  000050          	add	#SCRWID, R0
       1 005030 010021                  	mov	R0, (R1)+
       2 005032 005201                  	inc	R1
       3 005034 005201                  	inc	R1
       4 005036 062700  000050          	add	#SCRWID, R0
       1 005042 010021                  	mov	R0, (R1)+
       2 005044 005201                  	inc	R1
       3 005046 005201                  	inc	R1
       4 005050 062700  000050          	add	#SCRWID, R0
       1 005054 010021                  	mov	R0, (R1)+
       2 005056 005201                  	inc	R1
       3 005060 005201                  	inc	R1
       4 005062 062700  000050          	add	#SCRWID, R0
     345 005066 077325                  	sob	R3, 10$
     346                                	.rept	10.
     347                                	mov	#136000, (R1)+
     348                                	inc	R1
     349                                	inc	R1
     350                                	.endr
       1 005070 012721  136000          	mov	#136000, (R1)+
       2 005074 005201                  	inc	R1
       3 005076 005201                  	inc	R1
       1 005100 012721  136000          	mov	#136000, (R1)+
       2 005104 005201                  	inc	R1
       3 005106 005201                  	inc	R1
       1 005110 012721  136000          	mov	#136000, (R1)+
       2 005114 005201                  	inc	R1
       3 005116 005201                  	inc	R1
       1 005120 012721  136000          	mov	#136000, (R1)+
       2 005124 005201                  	inc	R1
       3 005126 005201                  	inc	R1
       1 005130 012721  136000          	mov	#136000, (R1)+
       2 005134 005201                  	inc	R1
       3 005136 005201                  	inc	R1
       1 005140 012721  136000          	mov	#136000, (R1)+
       2 005144 005201                  	inc	R1
       3 005146 005201                  	inc	R1
       1 005150 012721  136000          	mov	#136000, (R1)+
       2 005154 005201                  	inc	R1
       3 005156 005201                  	inc	R1
       1 005160 012721  136000          	mov	#136000, (R1)+
       2 005164 005201                  	inc	R1
       3 005166 005201                  	inc	R1
       1 005170 012721  136000          	mov	#136000, (R1)+
       2 005174 005201                  	inc	R1
       3 005176 005201                  	inc	R1
       1 005200 012721  136000          	mov	#136000, (R1)+
       2 005204 005201                  	inc	R1
       3 005206 005201                  	inc	R1
     351 005210 000207                  	return
     352                                
     353                                DrawTile:
     354 005212 004737  004604          	call	SetVreg
     355 005216 010014                  	mov	R0, (R4)
     356 005220 072127  000004          	ash	#4., R1
     357 005224 062701  007722          	add	#TilesPpuData, R1
     358 005230 012702  000050          	mov	#SCRWID, R2
     359                                	.rept	16.
     360                                	movb	(R1)+, (R5)
     361                                	add	R2, (R4)
     362                                	.endr
       1 005234 112115                  	movb	(R1)+, (R5)
       2 005236 060214                  	add	R2, (R4)
       1 005240 112115                  	movb	(R1)+, (R5)
       2 005242 060214                  	add	R2, (R4)
       1 005244 112115                  	movb	(R1)+, (R5)
       2 005246 060214                  	add	R2, (R4)
       1 005250 112115                  	movb	(R1)+, (R5)
       2 005252 060214                  	add	R2, (R4)
       1 005254 112115                  	movb	(R1)+, (R5)
       2 005256 060214                  	add	R2, (R4)
       1 005260 112115                  	movb	(R1)+, (R5)
       2 005262 060214                  	add	R2, (R4)
       1 005264 112115                  	movb	(R1)+, (R5)
       2 005266 060214                  	add	R2, (R4)
       1 005270 112115                  	movb	(R1)+, (R5)
       2 005272 060214                  	add	R2, (R4)
       1 005274 112115                  	movb	(R1)+, (R5)
       2 005276 060214                  	add	R2, (R4)
       1 005300 112115                  	movb	(R1)+, (R5)
       2 005302 060214                  	add	R2, (R4)
       1 005304 112115                  	movb	(R1)+, (R5)
       2 005306 060214                  	add	R2, (R4)
       1 005310 112115                  	movb	(R1)+, (R5)
       2 005312 060214                  	add	R2, (R4)
       1 005314 112115                  	movb	(R1)+, (R5)
       2 005316 060214                  	add	R2, (R4)
       1 005320 112115                  	movb	(R1)+, (R5)
       2 005322 060214                  	add	R2, (R4)
       1 005324 112115                  	movb	(R1)+, (R5)
       2 005326 060214                  	add	R2, (R4)
       1 005330 112115                  	movb	(R1)+, (R5)
       2 005332 060214                  	add	R2, (R4)
     363 005334 000207                  	return
     364                                
     365                                BlackWhite:
     366 005336 013700  001010          	mov	VLinesBegin, R0
     367 005342 052737  000007  001010  	bis	#^B111, VLinesBegin
     368 005350 012737  067770  177010  	mov	#VSyncCount2/2, @#177010
     369 005356 005037  177014          	clr	@#177014
     370 005362 012737  067770  177010  10$:	mov	#VSyncCount2/2, @#177010
     371 005370 023727  177014  000003  	cmp	@#177014, #3
     372 005376 103771                  	blo	10$
     373 005400 010037  001010          	mov	R0, VLinesBegin
     374 005404 000207                  	return
     375                                
     376 005406    003     103     101  MsgCave:	.asciz	<3>"CAVE:"<7>"X            "  ; with extra spaces to clear diamond numbers
         005411    126     105     072  
         005414    007     130     040  
         005417    040     040     040  
         005422    040     040     040  
         005425    040     040     040  
         005430    040     040     000  
     377 005433    003     060     060  MsgDiaNeeded:	.asciz	<3>"000"
         005436    060     000          
     378 005440    007     060     060  MsgDiamonds:	.asciz	<7>"000"
         005443    060     000          
     379 005445    000                  		.even
     380                                
     381 005446 000001                  DiaNeededSize:	.word	1
     382                                
     383                                PrintCaveStr:
     384 005450 010146                  	mov	R1, -(SP)
     385 005452 062700  000101          	add	#'A, R0
     386 005456 110037  005415          	movb	R0, MsgCave+7.
     387 005462 012701  101061          	mov	#SCRWID*14.+1+VADDR, R1
     388 005466 012700  005406          	mov	#MsgCave, R0
     389 005472 004737  004616          	call	PrintStr
     390 005476 012600                  	mov	(SP)+, R0
     391 005500 012705  005434          	mov	#MsgDiaNeeded+1, R5
     392 005504 004737  005532          	call	Digits3
     393 005510 010237  005446          	mov	R2, DiaNeededSize
     394 005514 012701  101100          	mov	#SCRWID*14.+16.+VADDR, R1
     395 005520 012700  005433          	mov	#MsgDiaNeeded, R0
     396 005524 004737  004616          	call	PrintStr
     397 005530 000207                  	return
     398                                
     399                                Digits3:
     400 005532 112725  000040          	movb	#^x20, (R5)+
     401 005536 112725  000040          	movb	#^x20, (R5)+
     402 005542 112725  000040          	movb	#^x20, (R5)+
     403 005546 005002                  	clr	R2
     404 005550 010001                  1$:	mov	R0, R1
     405 005552 005000                  	clr	R0
     406 005554 005202                  	inc	R2
     407 005556 071027  000012          	div	#10., R0
     408 005562 062701  000060          	add	#'0, R1
     409 005566 110145                  	movb	R1, -(R5)
     410 005570 005700                  	tst	R0
     411 005572 001366                  	bne	1$
     412 005574 000207                  	return
     413                                
     414                                PrintDiamonds:
     415 005576 012705  005441          	mov	#MsgDiamonds+1, R5
     416 005602 004737  005532          	call	Digits3
     417 005606 012701  101077          	mov	#SCRWID*14.+15.+VADDR, R1
     418 005612 163701  005446          	sub	DiaNeededSize, R1
     419 005616 012700  005440          	mov	#MsgDiamonds, R0
     420 005622 004737  004616          	call	PrintStr
     421 005626 000207                  	return
     422                                
     423 005630 000000                  SoundAddr:	.word	0
     424                                
     425                                PlaySound:
     426 005632 106427  000200          	mtps	#200
     427 005636 004737  004446          	call	TimerInit
     428 005642 006300                  	asl	R0
     429 005644 016000  006604          	mov	SoundTable(R0), R0
     430 005650 001420                  	beq	99$
     431 005652 012001                  	mov	(R0)+, R1
     432 005654 001416                  	beq	99$
     433 005656 010037  005630          	mov	R0, SoundAddr
     434 005662 010137  177712          	mov	R1, @#177712
     435 005666 005737  177714          	tst	@#177714
     436 005672 005737  177714          	tst	@#177714
     437 005676 012737  005720  000304  	mov	#SoundIntLo, @#304
     438 005704 012737  000101  177710  	mov	#^B01000001, @#177710
     439 005712 106427  000000          99$:	mtps	#0
     440 005716 000207                  	return
     441                                
     442                                SoundIntLo:
     443 005720 042737  000200  177716  	bic	#200, @#177716
     444 005726 012737  005736  000304  	mov	#SoundIntHi, @#304
     445 005734 000406                  	br	SoundIntNext
     446                                SoundIntHi:
     447 005736 052737  000200  177716  	bis	#200, @#177716
     448 005744 012737  005720  000304  	mov	#SoundIntLo, @#304
     449                                SoundIntNext:
     450 005752 017737  005630' 177712  	mov	@SoundAddr, @#177712
     451 005760 001410                  	beq	90$
     452 005762 062737  000002  005630  	add	#2, SoundAddr
     453 005770 005737  177714          	tst	@#177714
     454 005774 005737  177714          	tst	@#177714
     455 006000 000002                  	rti
     456 006002 005037  177710          90$:	clr	@#177710
     457 006006 005737  177714          	tst	@#177714
     458 006012 005737  177714          	tst	@#177714
     459 006016 000002                  	rti
     460                                
     461                                INTKeyboard:
     462 006020 010046                  	mov	R0, -(SP)
     463 006022 013700  177702          	mov	@#177702, R0
     464 006026 010146                  	mov	R1, -(SP)
     465 006030 010246                  	mov	R2, -(SP)
     466 006032 010346                  	mov	R3, -(SP)
     467 006034 010446                  	mov	R4, -(SP)
     468 006036 010546                  	mov	R5, -(SP)
     469 006040 012704  177010          	mov	#177010, R4
     470 006044 012705  177014          	mov	#177014, R5
     471 006050 011446                  	mov	(R4), -(SP)
     472 006052 012714  067764          	mov	#KeyCurrent/2, (R4)
     473 006056 010015                  	mov	R0, (R5)
     474 006060 032700  000200          	bit	#^B10000000, R0
     475 006064 001044                  	bne	50$
     476 006066 012701  006562          	mov	#KeysBuffer, R1
     477 006072 012702  006563          	mov	#KeysBuffer+1, R2
     478 006076 112221                  	movb	(R2)+, (R1)+
     479 006100 112221                  	movb	(R2)+, (R1)+
     480 006102 112221                  	movb	(R2)+, (R1)+
     481 006104 112221                  	movb	(R2)+, (R1)+
     482 006106 112221                  	movb	(R2)+, (R1)+
     483 006110 110021                  	movb	R0, (R1)+
     484 006112 012703  000006          	mov	#6., R3
     485 006116 122241                  2$:	cmpb	(R2)+, -(R1)
     486 006120 001004                  	bne	4$
     487 006122 077303                  	sob	R3, 2$
     488 006124 012714  067762          	mov	#KeyCombo/2, (R4)	; set 'combo is pressed'
     489 006130 005215                  	inc	(R5)
     490                                4$:
     491 006132 012714  067763          	mov	#KeyAny/2, (R4)		; 'anykey' is also pressed
     492 006136 005215                  	inc	(R5)
     493 006140 012701  006362          	mov	#KEYSDN, R1
     494 006144 005711                  10$:	tst	(R1)
     495 006146 001427                  	beq	90$
     496 006150 020021                  	cmp	R0, (R1)+
     497 006152 001403                  	beq	20$
     498 006154 062701  000004          	add	#4, R1
     499 006160 000771                  	br	10$
     500                                20$:
     501 006162 012114                  	mov	(R1)+, (R4)
     502 006164 005215                  	inc	(R5)
     503 006166 012114                  	mov	(R1)+, (R4)
     504 006170 001416                  	beq	90$
     505 006172 005015                  	clr	(R5)
     506 006174 000414                  	br	90$
     507                                50$:
     508 006176 042700  177760          	bic	#^B1111111111110000, R0
     509 006202 006300                  	asl	R0
     510 006204 016001  006250          	mov	KEYSUP+2(R0), R1
     511 006210 016000  006246          	mov	KEYSUP(R0), R0
     512 006214 020001                  60$:	cmp	R0, R1
     513 006216 103003                  	bhis	90$
     514 006220 012014                  	mov	(R0)+, (R4)
     515 006222 005015                  	clr	(R5)
     516 006224 000773                  	br	60$
     517 006226 012614                  90$:	mov	(SP)+, (R4)
     518 006230 012605                  	mov	(SP)+, R5
     519 006232 012604                  	mov	(SP)+, R4
     520 006234 012603                  	mov	(SP)+, R3
     521 006236 012602                  	mov	(SP)+, R2
     522 006240 012601                  	mov	(SP)+, R1
     523 006242 012600                  	mov	(SP)+, R0
     524 006244 000002                  	rti
     525                                
     526 006246 006310  006310  006310  KEYSUP:	.word	KUP0000, KUP0001, KUP0010, KUP0011, KUP0100, KUP0101, KUP0110, KUP0111
         006254 006310  006310  006312  
         006262 006314  006314          
     527 006266 006314  006320  006324  	.word	KUP1000, KUP1001, KUP1010, KUP1011, KUP1100, KUP1101, KUP1110, KUP1111
         006274 006332  006340  006350  
         006302 006354  006360          
     528 006306 006362                  	.word	KUP7777
     529                                KUP0000:
     530                                KUP0001:
     531                                KUP0010:
     532                                KUP0011:
     533 006310 067751                  KUP0100:	.word	KeyStop/2
     534 006312 067753                  KUP0101:	.word	KeyShift/2
     535                                KUP0110:
     536                                KUP0111:
     537 006314 067743  067750          KUP1000:	.word	Key1/2, KeyK1/2
     538 006320 067742  067747          KUP1001:	.word	Key2/2, KeyK2/2
     539 006324 067741  067752  067746  KUP1010:	.word	Key3/2, KeyUst/2, KeyK3/2
     540 006332 067740  067755  067756  KUP1011:	.word	Key4/2, KeySpace/2, KeyRight/2
     541 006340 067737  067760  067761  KUP1100:	.word	Key5/2, KeyDown/2, KeyUp/2, KeyK4/2
         006346 067745                  
     542 006350 067736  067744          KUP1101:	.word	Key6/2, KeyK5/2
     543 006354 067735  067757          KUP1110:	.word	Key7/2, KeyLeft/2
     544 006360 067734                  KUP1111:	.word	Key8/2
     545                                KUP7777:
     546                                
     547 006362 000004  067751  000000  KEYSDN:	.word	^B00000100, KeyStop/2,		0
     548 006370 000152  067752  000000  	.word	^B01101010, KeyUst/2,		0
     549 006376 000030  067743  000000  	.word	^B00011000, Key1/2,		0
     550 006404 000031  067742  000000  	.word	^B00011001, Key2/2,		0
     551 006412 000032  067741  000000  	.word	^B00011010, Key3/2,		0
     552 006420 000013  067740  000000  	.word	^B00001011, Key4/2,		0
     553 006426 000034  067737  000000  	.word	^B00011100, Key5/2,		0
     554 006434 000035  067736  000000  	.word	^B00011101, Key6/2,		0
     555 006442 000016  067735  000000  	.word	^B00001110, Key7/2,		0
     556 006450 000017  067734  000000  	.word	^B00001111, Key8/2,		0
     557 006456 000113  067755  000000  	.word	^B01001011, KeySpace/2,		0
     558 006464 000134  067760  067761  	.word	^B01011100, KeyDown/2,		KeyUp/2
     559 006472 000154  067761  067760  	.word	^B01101100, KeyUp/2,		KeyDown/2
     560 006500 000116  067757  067756  	.word	^B01001110, KeyLeft/2, 		KeyRight/2
     561 006506 000133  067756  067757  	.word	^B01011011, KeyRight/2,		KeyLeft/2
     562 006514 000010  067750  000000  	.word	^B00001000, KeyK1/2,		0
     563 006522 000011  067747  000000  	.word	^B00001001, KeyK2/2,		0
     564 006530 000012  067746  000000  	.word	^B00001010, KeyK3/2,		0
     565 006536 000014  067745  000000  	.word	^B00001100, KeyK4/2,		0
     566 006544 000015  067744  000000  	.word	^B00001101, KeyK5/2,		0
     567 006552 000105  067753  000000  	.word	^B01000101, KeyShift/2,		0
     568 006560 000000                  	.word	0
     569                                
     570 006562                         KeysBuffer:	.BLKB	6
     571 006570    154     134     154  		.BYTE	154, 134, 154, 154, 134, 134
         006573    154     134     134  
     572                                
     573 006576 106427  000200          Error:	mtps	#200
     574 006602 000777                  	br	.
     575                                
     576                                .radix 10
     577                                
     578                                SoundTable:
     579 006604 000000  006622  007262  	.word	0, Sound001, Sound002, Sound003, Sound004, Sound005, Sound006
         006612 007270  007362  007564  
         006620 007670                  
     580                                
     581                                Sound001:
     582 006622 001533  000772  000777  	.word	859, 506, 511, 507, 1527, 510, 508, 509, 509, 1526, 510, 1017, 510, 2033, 1021
         006630 000773  002767  000776  
         006636 000774  000775  000775  
         006644 002766  000776  001771  
         006652 000776  003761  001775  
     583 006660 001767  002771  003722  	.word	1015, 1529, 2002, 495, 491, 1973, 494, 984, 495, 984, 988, 968, 480, 475, 1909, 1431
         006666 000757  000753  003665  
         006674 000756  001730  000757  
         006702 001730  001734  001710  
         006710 000740  000733  003565  
         006716 002627                  
     584 006720 000736  003562  003527  	.word	478, 1906, 1879, 4004, 2230, 1826, 497, 2460, 1484, 490, 496, 1475, 990, 919, 926, 458
         006726 007644  004266  003442  
         006734 000761  004634  002714  
         006742 000752  000760  002703  
         006750 001736  001627  001636  
         006756 000712                  
     585 006760 004403  000716  001631  	.word	2307, 462, 921, 463, 460, 462, 921, 1242, 413, 827, 414, 413, 1240, 1654, 827, 2097
         006766 000717  000714  000716  
         006774 001631  002332  000635  
         007002 001473  000636  000635  
         007010 002330  003166  001473  
         007016 004061                  
     586 007020 001537  001527  000661  	.word	863, 855, 433, 855, 1291, 428, 431, 428, 430, 429, 859, 429, 1383, 1384, 1383, 924
         007026 001527  002413  000654  
         007034 000657  000654  000656  
         007042 000655  001533  000655  
         007050 002547  002550  002547  
         007056 001634                  
     587 007060 000715  001632  000716  	.word	461, 922, 462, 460, 462, 461, 398, 1191, 1194, 397, 796, 795, 1192, 399, 1191, 400
         007066 000714  000716  000715  
         007074 000616  002247  002252  
         007102 000615  001434  001433  
         007110 002250  000617  002247  
         007116 000620                  
     588 007120 006327  000644  003157  	.word	3287, 420, 1647, 421, 1233, 834, 1679, 436, 853, 1293, 855, 433, 426, 433, 426, 432
         007126 000645  002321  001502  
         007134 003217  000664  001525  
         007142 002415  001527  000661  
         007150 000652  000661  000652  
         007156 000660                  
     589 007160 000653  001535  003422  	.word	427, 861, 1810, 926, 458, 1846, 462, 461, 922, 922, 462, 1763, 798, 395, 1195, 397
         007166 001636  000712  003466  
         007174 000716  000715  001632  
         007202 001632  000716  003343  
         007210 001436  000613  002253  
         007216 000615                  
     590 007220 000616  000615  003066  	.word	398, 397, 1590, 399, 396, 399, 396, 812, 413, 414, 826, 2481, 415, 825, 829, 412
         007226 000617  000614  000617  
         007234 000614  001454  000635  
         007242 000636  001472  004661  
         007250 000637  001471  001475  
         007256 000634                  
     591 007260 000000                  	.word	0
     592                                
     593                                Sound002:
     594 007262 000074  000074  000000  	.word	60,60,0
     595                                
     596                                Sound003:
     597 007270 000121  000101  000127  	.word	81, 65, 87, 65, 146, 59, 66, 61, 102, 61, 88, 66, 86, 67, 100, 40
         007276 000101  000222  000073  
         007304 000102  000075  000146  
         007312 000075  000130  000102  
         007320 000126  000103  000144  
         007326 000050                  
     598 007330 000750  004460  002630  	.word	488, 2352, 1432, 1096, 544, 520, 528, 496, 1160, 520, 536, 363
         007336 002110  001040  001010  
         007344 001020  000760  002210  
         007352 001010  001030  000553  
     599 007360 000000                  	.word	0
     600                                
     601                                Sound004:
     602 007362 000126  000055  000104  	.word	86, 45, 68, 57, 67, 58, 67, 57, 68, 57, 67, 58, 67, 58, 67, 57
         007370 000071  000103  000072  
         007376 000103  000071  000104  
         007404 000071  000103  000072  
         007412 000103  000072  000103  
         007420 000071                  
     603 007422 000103  000072  000103  	.word	67, 58, 67, 58, 67, 57, 68, 57, 67, 58, 67, 58, 67, 57, 68, 57
         007430 000072  000103  000071  
         007436 000104  000071  000103  
         007444 000072  000103  000072  
         007452 000103  000071  000104  
         007460 000071                  
     604 007462 000103  000072  000103  	.word	67, 58, 67, 58, 67, 57, 67, 58, 67, 58, 67, 57, 68, 57, 67, 58
         007470 000072  000103  000071  
         007476 000103  000072  000103  
         007504 000072  000103  000071  
         007512 000104  000071  000103  
         007520 000072                  
     605 007522 000103  000072  000103  	.word	67, 58, 67, 57, 67, 58, 67, 58, 67, 57, 68, 57, 67, 58, 67, 74
         007530 000071  000103  000072  
         007536 000103  000072  000103  
         007544 000071  000104  000071  
         007552 000103  000072  000103  
         007560 000112                  
     606 007562 000000                  	.word	0
     607                                
     608                                Sound005:
     609 007564 000016  000124  000071  	.word	14, 84, 57, 89, 63, 95, 74, 97, 85, 105, 90, 112, 101, 116, 109
         007572 000131  000077  000137  
         007600 000112  000141  000125  
         007606 000151  000132  000160  
         007614 000145  000164  000155  
     610 007622 000172  000166  000200  	.word	122, 118, 128, 125, 136, 134, 141, 142, 148, 149, 156, 157, 162, 164, 169, 172
         007630 000175  000210  000206  
         007636 000215  000216  000224  
         007644 000225  000234  000235  
         007652 000242  000244  000251  
         007660 000254                  
     611 007662 000260  000140          	.word	176, 96
     612 007666 000000                  	.word	0
     613                                
     614                                Sound006:
     615 007670 000302  000117  000045  	.word	194, 79, 37, 26, 75, 25, 210
         007676 000032  000113  000031  
         007704 000322                  
     616 007706 000051  000045  000114  	.word	41, 37, 76, 26, 52
         007714 000032  000064          
     617 007720 000000                  	.word	0
     618                                
     619                                .radix 8
     620                                
     621                                TilesPpuData:
     622 007722    000     000     000  	.byte	0, 0, 0, 0, 0, 0, 0, 0, 0, 0, 0, 0, 0, 0, 0, 0
         007725    000     000     000  
         007730    000     000     000  
         007733    000     000     000  
         007736    000     000     000  
         007741    000                  
     623 007742    377     377     377  	.byte	377, 377, 377, 231, 273, 231, 377, 377, 377, 377, 231, 273, 231, 377, 377, 377
         007745    231     273     231  
         007750    377     377     377  
         007753    377     231     273  
         007756    231     377     377  
         007761    377                  
     624 007762    377     377     377  	.byte	377, 377, 377, 231, 273, 231, 377, 377, 377, 377, 231, 273, 231, 377, 377, 377
         007765    231     273     231  
         007770    377     377     377  
         007773    377     231     273  
         007776    231     377     377  
         010001    377                  
     625 010002    377     377     377  	.byte	377, 377, 377, 231, 273, 273, 377, 377, 377, 377, 231, 273, 273, 377, 377, 377
         010005    231     273     273  
         010010    377     377     377  
         010013    377     231     273  
         010016    273     377     377  
         010021    377                  
     626 010022    244     223     156  	.byte	244, 223, 156, 273, 335, 166, 337, 175, 376, 173, 267, 356, 125, 263, 57, 122
         010025    273     335     166  
         010030    337     175     376  
         010033    173     267     356  
         010036    125     263     057  
         010041    122                  
     627 010042    244     223     156  	.byte	244, 223, 156, 273, 335, 166, 337, 175, 376, 173, 267, 356, 125, 263, 57, 122
         010045    273     335     166  
         010050    337     175     376  
         010053    173     267     356  
         010056    125     263     057  
         010061    122                  
     628 010062    000     000     104  	.byte	0, 0, 104, 0, 0, 42, 31, 100, 20, 102, 22, 102, 0, 0, 10, 0
         010065    000     000     042  
         010070    031     100     020  
         010073    102     022     102  
         010076    000     000     010  
         010101    000                  
     629 010102    000     042     356  	.byte	0, 42, 356, 0, 0, 210, 273, 0, 0, 42, 356, 0, 0, 210, 273, 0
         010105    000     000     210  
         010110    273     000     000  
         010113    042     356     000  
         010116    000     210     273  
         010121    000                  
     630 010122    356     356     356  	.byte	356, 356, 356, 0, 273, 273, 273, 0, 356, 356, 356, 0, 273, 273, 273, 0
         010125    000     273     273  
         010130    273     000     356  
         010133    356     356     000  
         010136    273     273     273  
         010141    000                  
     631 010142    356     356     356  	.byte	356, 356, 356, 0, 273, 273, 273, 0, 356, 356, 356, 0, 273, 273, 273, 0
         010145    000     273     273  
         010150    273     000     356  
         010153    356     356     000  
         010156    273     273     273  
         010161    000                  
     632 010162    034     052     165  	.byte	34, 52, 165, 342, 340, 200, 300, 200, 0, 0, 0, 0, 0, 0, 0, 0
         010165    342     340     200  
         010170    300     200     000  
         010173    000     000     000  
         010176    000     000     000  
         010201    000                  
     633 010202    034     056     175  	.byte	34, 56, 175, 353, 367, 335, 363, 337, 175, 133, 375, 373, 167, 176, 44, 30
         010205    353     367     335  
         010210    363     337     175  
         010213    133     375     373  
         010216    167     176     044  
         010221    030                  
     634 010222    034     052     165  	.byte	34, 52, 165, 342, 340, 200, 300, 200, 0, 0, 0, 0, 0, 0, 0, 0
         010225    342     340     200  
         010230    300     200     000  
         010233    000     000     000  
         010236    000     000     000  
         010241    000                  
     635 010242    000     000     000  	.byte	0, 0, 0, 0, 40, 4, 22, 110, 20, 4, 42, 30, 0, 0, 0, 0
         010245    000     040     004  
         010250    022     110     020  
         010253    004     042     030  
         010256    000     000     000  
         010261    000                  
     636 010262    000     000     000  	.byte	0, 0, 0, 40, 50, 106, 162, 112, 60, 26, 52, 134, 24, 0, 0, 0
         010265    040     050     106  
         010270    162     112     060  
         010273    026     052     134  
         010276    024     000     000  
         010301    000                  
     637 010302    000     000     122  	.byte	0, 0, 122, 50, 152, 106, 162, 113, 60, 127, 52, 134, 125, 30, 2, 0
         010305    050     152     106  
         010310    162     113     060  
         010313    127     052     134  
         010316    125     030     002  
         010321    000                  
     638 010322    030     030     044  	.byte	30, 30, 44, 44, 126, 152, 377, 377, 377, 377, 152, 126, 54, 44, 30, 30
         010325    044     126     152  
         010330    377     377     377  
         010333    377     152     126  
         010336    054     044     030  
         010341    030                  
     639 010342    030     030     054  	.byte	30, 30, 54, 74, 176, 176, 377, 253, 325, 253, 102, 102, 44, 64, 30, 30
         010345    074     176     176  
         010350    377     253     325  
         010353    253     102     102  
         010356    044     064     030  
         010361    030                  
     640 010362    030     030     074  	.byte	30, 30, 74, 74, 152, 126, 253, 201, 201, 201, 126, 152, 74, 74, 30, 30
         010365    074     152     126  
         010370    253     201     201  
         010373    201     126     152  
         010376    074     074     030  
         010401    030                  
     641 010402    030     030     064  	.byte	30, 30, 64, 54, 102, 102, 201, 325, 253, 377, 176, 176, 74, 54, 30, 30
         010405    054     102     102  
         010410    201     325     253  
         010413    377     176     176  
         010416    074     054     030  
         010421    030                  
     642 010422    377     042     356  	.byte	377, 42, 356, 0, 0, 210, 273, 0, 0, 42, 356, 0, 0, 210, 273, 377
         010425    000     000     210  
         010430    273     000     000  
         010433    042     356     000  
         010436    000     210     273  
         010441    377                  
     643 010442    377     104     335  	.byte	377, 104, 335, 0, 0, 21, 167, 0, 0, 104, 335, 0, 0, 21, 167, 377
         010445    000     000     021  
         010450    167     000     000  
         010453    104     335     000  
         010456    000     021     167  
         010461    377                  
     644 010462    377     210     273  	.byte	377, 210, 273, 0, 0, 42, 356, 0, 0, 210, 273, 0, 0, 42, 356, 377
         010465    000     000     042  
         010470    356     000     000  
         010473    210     273     000  
         010476    000     042     356  
         010501    377                  
     645 010502    377     021     167  	.byte	377, 21, 167, 0, 0, 104, 335, 0, 0, 21, 167, 0, 0, 104, 335, 377
         010505    000     000     104  
         010510    335     000     000  
         010513    021     167     000  
         010516    000     104     335  
         010521    377                  
     646 010522    377     377     201  	.byte	377, 377, 201, 201, 275, 275, 275, 275, 275, 275, 275, 275, 201, 201, 377, 377
         010525    201     275     275  
         010530    275     275     275  
         010533    275     275     275  
         010536    201     201     377  
         010541    377                  
     647 010542    000     000     176  	.byte	0, 0, 176, 176, 176, 176, 176, 176, 176, 176, 176, 176, 176, 176, 0, 0
         010545    176     176     176  
         010550    176     176     176  
         010553    176     176     176  
         010556    176     176     000  
         010561    000                  
     648 010562    377     377     377  	.byte	377, 377, 377, 377, 377, 377, 347, 347, 347, 347, 377, 377, 377, 377, 377, 377
         010565    377     377     377  
         010570    347     347     347  
         010573    347     377     377  
         010576    377     377     377  
         010601    377                  
     649 010602    377     377     377  	.byte	377, 377, 377, 377, 303, 303, 333, 333, 333, 333, 303, 303, 377, 377, 377, 377
         010605    377     303     303  
         010610    333     333     333  
         010613    333     303     303  
         010616    377     377     377  
         010621    377                  
     650 010622    201     001     303  	.byte	201, 1, 303, 203, 347, 4, 30, 10, 30, 357, 347, 307, 303, 2, 1, 0
         010625    203     347     004  
         010630    030     010     030  
         010633    357     347     307  
         010636    303     002     001  
         010641    000                  
     651 010642    102     102     002  	.byte	102, 102, 2, 2, 146, 4, 30, 10, 30, 156, 146, 106, 102, 2, 102, 0
         010645    002     146     004  
         010650    030     010     030  
         010653    156     146     106  
         010656    102     002     102  
         010661    000                  
     652 010662    044     004     044  	.byte	44, 4, 44, 4, 44, 0, 30, 10, 30, 10, 44, 0, 44, 0, 44, 0
         010665    004     044     000  
         010670    030     010     030  
         010673    010     044     000  
         010676    044     000     044  
         010701    000                  
     653 010702    102     102     002  	.byte	102, 102, 2, 2, 146, 4, 30, 10, 30, 156, 146, 106, 102, 2, 102, 0
         010705    002     146     004  
         010710    030     010     030  
         010713    156     146     106  
         010716    102     002     102  
         010721    000                  
     654 010722    000     044     074  	.byte	0, 44, 74, 132, 132, 74, 30, 74, 132, 74, 30, 30, 74, 44, 44, 146
         010725    132     132     074  
         010730    030     074     132  
         010733    074     030     030  
         010736    074     044     044  
         010741    146                  
     655 010742    000     044     074  	.byte	0, 44, 74, 132, 132, 74, 30, 74, 132, 74, 30, 30, 74, 44, 44, 146
         010745    132     132     074  
         010750    030     074     132  
         010753    074     030     030  
         010756    074     044     044  
         010761    146                  
     656 010762    000     044     074  	.byte	0, 44, 74, 132, 132, 74, 30, 74, 132, 74, 30, 30, 74, 44, 46, 140
         010765    132     132     074  
         010770    030     074     132  
         010773    074     030     030  
         010776    074     044     046  
         011001    140                  
     657 011002    000     044     074  	.byte	0, 44, 74, 132, 132, 74, 30, 74, 132, 74, 30, 30, 74, 44, 46, 140
         011005    132     132     074  
         011010    030     074     132  
         011013    074     030     030  
         011016    074     044     046  
         011021    140                  
     658 011022    000     030     074  	.byte	0, 30, 74, 134, 134, 74, 30, 30, 30, 70, 30, 30, 70, 56, 46, 142
         011025    134     134     074  
         011030    030     030     030  
         011033    070     030     030  
         011036    070     056     046  
         011041    142                  
     659 011042    000     000     030  	.byte	0, 0, 30, 74, 134, 134, 74, 30, 30, 70, 30, 30, 30, 30, 30, 60
         011045    074     134     134  
         011050    074     030     030  
         011053    070     030     030  
         011056    030     030     030  
         011061    060                  
     660 011062    000     000     030  	.byte	0, 0, 30, 74, 134, 134, 74, 30, 30, 70, 30, 30, 30, 70, 70, 30
         011065    074     134     134  
         011070    074     030     030  
         011073    070     030     030  
         011076    030     070     070  
         011101    030                  
     661 011102    000     030     074  	.byte	0, 30, 74, 134, 134, 74, 30, 30, 30, 70, 30, 30, 30, 30, 30, 60
         011105    134     134     074  
         011110    030     030     030  
         011113    070     030     030  
         011116    030     030     030  
         011121    060                  
     662 011122    000     030     074  	.byte	0, 30, 74, 72, 72, 74, 30, 30, 30, 34, 30, 30, 30, 30, 70, 54
         011125    072     072     074  
         011130    030     030     030  
         011133    034     030     030  
         011136    030     030     070  
         011141    054                  
     663 011142    000     000     030  	.byte	0, 0, 30, 74, 72, 72, 74, 30, 30, 34, 30, 30, 30, 34, 34, 30
         011145    074     072     072  
         011150    074     030     030  
         011153    034     030     030  
         011156    030     034     034  
         011161    030                  
     664 011162    000     000     030  	.byte	0, 0, 30, 74, 72, 72, 74, 30, 30, 34, 30, 30, 30, 30, 70, 54
         011165    074     072     072  
         011170    074     030     030  
         011173    034     030     030  
         011176    030     030     070  
         011201    054                  
     665 011202    000     030     074  	.byte	0, 30, 74, 72, 72, 74, 30, 30, 30, 34, 30, 30, 34, 164, 144, 106
         011205    072     072     074  
         011210    030     030     030  
         011213    034     030     030  
         011216    034     164     144  
         011221    106                  
     666 011222    377     377     377  	.byte	377, 377, 377, 231, 273, 231, 377, 377, 377, 377, 231, 273, 231, 377, 377, 377
         011225    231     273     231  
         011230    377     377     377  
         011233    377     231     273  
         011236    231     377     377  
         011241    377                  
     667 011242    377     377     377  	.byte	377, 377, 377, 231, 273, 231, 377, 377, 377, 377, 231, 273, 231, 377, 377, 377
         011245    231     273     231  
         011250    377     377     377  
         011253    377     231     273  
         011256    231     377     377  
         011261    377                  
     668 011262    000     000     000  	.byte	0, 0, 0, 0, 0, 0, 0, 0, 0, 0, 0, 0, 0, 0, 0, 0
         011265    000     000     000  
         011270    000     000     000  
         011273    000     000     000  
         011276    000     000     000  
         011301    000                  
     669 011302    000     000     000  	.byte	0, 0, 0, 0, 0, 0, 0, 0, 0, 0, 0, 0, 0, 0, 0, 0
         011305    000     000     000  
         011310    000     000     000  
         011313    000     000     000  
         011316    000     000     000  
         011321    000                  
     670 011322    020     000     001  	.byte	20, 0, 1, 202, 202, 202, 1, 0, 0, 201, 102, 102, 102, 201, 0, 0
         011325    202     202     202  
         011330    001     000     000  
         011333    201     102     102  
         011336    102     201     000  
         011341    000                  
     671 011342    050     020     200  	.byte	50, 20, 200, 101, 142, 101, 200, 0, 0, 0, 201, 102, 201, 0, 20, 50
         011345    101     142     101  
         011350    200     000     000  
         011353    000     201     102  
         011356    201     000     020  
         011361    050                  
     672 011362    104     050     020  	.byte	104, 50, 20, 200, 101, 200, 0, 0, 0, 0, 0, 0, 0, 20, 50, 104
         011365    200     101     200  
         011370    000     000     000  
         011373    000     000     000  
         011376    000     020     050  
         011401    104                  
     673 011402    050     020     000  	.byte	50, 20, 0, 1, 202, 1, 0, 0, 0, 0, 203, 102, 203, 0, 20, 50
         011405    001     202     001  
         011410    000     000     000  
         011413    000     203     102  
         011416    203     000     020  
         011421    050                  
     674                                
     675                                FontPpuData:
     676 011422    000     076     147  	.byte	0, 76, 147, 147, 147, 147, 177, 76
         011425    147     147     147  
         011430    177     076          
     677 011432    000     030     034  	.byte	0, 30, 34, 34, 30, 30, 176, 176
         011435    034     030     030  
         011440    176     176          
     678 011442    000     076     163  	.byte	0, 76, 163, 70, 34, 16, 177, 177
         011445    070     034     016  
         011450    177     177          
     679 011452    000     176     060  	.byte	0, 176, 60, 30, 60, 147, 177, 76
         011455    030     060     147  
         011460    177     076          
     680 011462    000     003     003  	.byte	0, 3, 3, 73, 177, 70, 70, 70
         011465    073     177     070  
         011470    070     070          
     681 011472    000     177     007  	.byte	0, 177, 7, 77, 140, 147, 177, 76
         011475    077     140     147  
         011500    177     076          
     682 011502    000     076     007  	.byte	0, 76, 7, 77, 147, 147, 177, 76
         011505    077     147     147  
         011510    177     076          
     683 011512    000     177     161  	.byte	0, 177, 161, 70, 34, 16, 7, 7
         011515    070     034     016  
         011520    007     007          
     684 011522    000     076     147  	.byte	0, 76, 147, 76, 147, 147, 177, 76
         011525    076     147     147  
         011530    177     076          
     685 011532    000     076     147  	.byte	0, 76, 147, 147, 176, 70, 34, 16
         011535    147     176     070  
         011540    034     016          
     686 011542    000     000     030  	.byte	0, 0, 30, 30, 0, 30, 30, 0
         011545    030     000     030  
         011550    030     000          
     687 011552    000     000     070  	.byte	0, 0, 70, 34, 16, 34, 70, 0
         011555    034     016     034  
         011560    070     000          
     688 011562    000     000     016  	.byte	0, 0, 16, 34, 70, 34, 16, 0
         011565    034     070     034  
         011570    016     000          
     689 011572    000     000     010  	.byte	0, 0, 10, 34, 76, 66, 42, 0
         011575    034     076     066  
         011600    042     000          
     690 011602    000     000     042  	.byte	0, 0, 42, 66, 76, 34, 10, 0
         011605    066     076     034  
         011610    010     000          
     691 011612    000     000     140  	.byte	0, 0, 140, 60, 30, 14, 6, 0
         011615    060     030     014  
         011620    006     000          
     692 011622    000     000     000  	.byte	0, 0, 0, 0, 0, 0, 0, 0
         011625    000     000     000  
         011630    000     000          
     693 011632    000     034     076  	.byte	0, 34, 76, 147, 147, 177, 147, 147
         011635    147     147     177  
         011640    147     147          
     694 011642    000     077     147  	.byte	0, 77, 147, 77, 147, 147, 147, 77
         011645    077     147     147  
         011650    147     077          
     695 011652    000     076     147  	.byte	0, 76, 147, 7, 7, 147, 177, 76
         011655    007     007     147  
         011660    177     076          
     696 011662    000     037     067  	.byte	0, 37, 67, 147, 147, 67, 77, 37
         011665    147     147     067  
         011670    077     037          
     697 011672    000     177     007  	.byte	0, 177, 7, 77, 7, 7, 177, 177
         011675    077     007     007  
         011700    177     177          
     698 011702    000     177     007  	.byte	0, 177, 7, 77, 7, 7, 7, 7
         011705    077     007     007  
         011710    007     007          
     699 011712    000     176     007  	.byte	0, 176, 7, 7, 167, 147, 177, 176
         011715    007     167     147  
         011720    177     176          
     700 011722    000     147     147  	.byte	0, 147, 147, 177, 147, 147, 147, 147
         011725    177     147     147  
         011730    147     147          
     701 011732    000     076     034  	.byte	0, 76, 34, 34, 34, 34, 76, 76
         011735    034     034     034  
         011740    076     076          
     702 011742    000     140     140  	.byte	0, 140, 140, 140, 140, 147, 176, 74
         011745    140     140     147  
         011750    176     074          
     703 011752    000     147     067  	.byte	0, 147, 67, 37, 37, 67, 147, 147
         011755    037     037     067  
         011760    147     147          
     704 011762    000     007     007  	.byte	0, 7, 7, 7, 7, 7, 177, 177
         011765    007     007     007  
         011770    177     177          
     705 011772    000     143     167  	.byte	0, 143, 167, 177, 153, 143, 143, 143
         011775    177     153     143  
         012000    143     143          
     706 012002    000     147     157  	.byte	0, 147, 157, 177, 177, 177, 167, 147
         012005    177     177     177  
         012010    167     147          
     707 012012    000     076     143  	.byte	0, 76, 143, 143, 143, 143, 177, 76
         012015    143     143     143  
         012020    177     076          
     708 012022    000     077     147  	.byte	0, 77, 147, 147, 177, 77, 7, 7
         012025    147     177     077  
         012030    007     007          
     709 012032    000     076     147  	.byte	0, 76, 147, 147, 147, 67, 176, 154
         012035    147     147     067  
         012040    176     154          
     710 012042    000     077     147  	.byte	0, 77, 147, 147, 77, 77, 147, 147
         012045    147     077     077  
         012050    147     147          
     711 012052    000     076     007  	.byte	0, 76, 7, 76, 140, 140, 177, 77
         012055    076     140     140  
         012060    177     077          
     712 012062    000     177     034  	.byte	0, 177, 34, 34, 34, 34, 34, 34
         012065    034     034     034  
         012070    034     034          
     713 012072    000     147     147  	.byte	0, 147, 147, 147, 147, 147, 177, 177
         012075    147     147     147  
         012100    177     177          
     714 012102    000     147     147  	.byte	0, 147, 147, 147, 147, 177, 76, 34
         012105    147     147     177  
         012110    076     034          
     715 012112    000     143     143  	.byte	0, 143, 143, 153, 177, 177, 167, 143
         012115    153     177     177  
         012120    167     143          
     716 012122    000     147     147  	.byte	0, 147, 147, 74, 74, 147, 147, 147
         012125    074     074     147  
         012130    147     147          
     717 012132    000     143     143  	.byte	0, 143, 143, 76, 34, 34, 34, 34
         012135    076     034     034  
         012140    034     034          
     718 012142    000     177     070  	.byte	0, 177, 70, 34, 16, 7, 177, 177
         012145    034     016     007  
         012150    177     177          
     719                                
     720                                	.even
     721                                
     722                                END:
     723                                
     723                                
